SF:/Users/adrianramos/Repos/demonictutor/src/application/game_service.rs
FN:42,_RNvMNtNtCs44BQeM2UY80_12demonictutor11application12game_serviceINtB2_11GameServiceNtNtNtB6_14infrastructure11event_store18InMemoryEventStoreNtNtB1m_9event_bus16InMemoryEventBusE10start_gameCsaugSN2uZP1X_12advance_turn
FN:106,_RNvMNtNtCs44BQeM2UY80_12demonictutor11application12game_serviceINtB2_11GameServiceNtNtNtB6_14infrastructure11event_store18InMemoryEventStoreNtNtB1m_9event_bus16InMemoryEventBusE12advance_turnCsaugSN2uZP1X_12advance_turn
FN:60,_RNvMNtNtCs44BQeM2UY80_12demonictutor11application12game_serviceINtB2_11GameServiceNtNtNtB6_14infrastructure11event_store18InMemoryEventStoreNtNtB1m_9event_bus16InMemoryEventBusE18deal_opening_handsCsaugSN2uZP1X_12advance_turn
FN:30,_RNvMNtNtCs44BQeM2UY80_12demonictutor11application12game_serviceINtB2_11GameServiceNtNtNtB6_14infrastructure11event_store18InMemoryEventStoreNtNtB1m_9event_bus16InMemoryEventBusE3newCsaugSN2uZP1X_12advance_turn
FN:84,_RNvMNtNtCs44BQeM2UY80_12demonictutor11application12game_serviceINtB2_11GameServiceNtNtNtB6_14infrastructure11event_store18InMemoryEventStoreNtNtB1m_9event_bus16InMemoryEventBusE9play_landCsaugSN2uZP1X_12advance_turn
FN:42,_RNvMNtNtCs44BQeM2UY80_12demonictutor11application12game_serviceINtB2_11GameServiceNtNtNtB6_14infrastructure11event_store18InMemoryEventStoreNtNtB1m_9event_bus16InMemoryEventBusE10start_gameCsQDGLTnpKR1_18deal_opening_hands
FN:60,_RNvMNtNtCs44BQeM2UY80_12demonictutor11application12game_serviceINtB2_11GameServiceNtNtNtB6_14infrastructure11event_store18InMemoryEventStoreNtNtB1m_9event_bus16InMemoryEventBusE18deal_opening_handsCsQDGLTnpKR1_18deal_opening_hands
FN:30,_RNvMNtNtCs44BQeM2UY80_12demonictutor11application12game_serviceINtB2_11GameServiceNtNtNtB6_14infrastructure11event_store18InMemoryEventStoreNtNtB1m_9event_bus16InMemoryEventBusE3newCsQDGLTnpKR1_18deal_opening_hands
FN:42,_RNvMNtNtCsfSYmbtmwwOB_12demonictutor11application12game_serviceINtB2_11GameServiceppE10start_gameB6_
FN:106,_RNvMNtNtCsfSYmbtmwwOB_12demonictutor11application12game_serviceINtB2_11GameServiceppE12advance_turnB6_
FN:60,_RNvMNtNtCsfSYmbtmwwOB_12demonictutor11application12game_serviceINtB2_11GameServiceppE18deal_opening_handsB6_
FN:30,_RNvMNtNtCsfSYmbtmwwOB_12demonictutor11application12game_serviceINtB2_11GameServiceppE3newB6_
FN:150,_RNvMNtNtCsfSYmbtmwwOB_12demonictutor11application12game_serviceINtB2_11GameServiceppE8mulliganB6_
FN:128,_RNvMNtNtCsfSYmbtmwwOB_12demonictutor11application12game_serviceINtB2_11GameServiceppE9draw_cardB6_
FN:84,_RNvMNtNtCsfSYmbtmwwOB_12demonictutor11application12game_serviceINtB2_11GameServiceppE9play_landB6_
FN:42,_RNvMNtNtCs44BQeM2UY80_12demonictutor11application12game_serviceINtB2_11GameServiceNtNtNtB6_14infrastructure11event_store18InMemoryEventStoreNtNtB1m_9event_bus16InMemoryEventBusE10start_gameCsqDz8nazDVt_9draw_card
FN:106,_RNvMNtNtCs44BQeM2UY80_12demonictutor11application12game_serviceINtB2_11GameServiceNtNtNtB6_14infrastructure11event_store18InMemoryEventStoreNtNtB1m_9event_bus16InMemoryEventBusE12advance_turnCsqDz8nazDVt_9draw_card
FN:60,_RNvMNtNtCs44BQeM2UY80_12demonictutor11application12game_serviceINtB2_11GameServiceNtNtNtB6_14infrastructure11event_store18InMemoryEventStoreNtNtB1m_9event_bus16InMemoryEventBusE18deal_opening_handsCsqDz8nazDVt_9draw_card
FN:30,_RNvMNtNtCs44BQeM2UY80_12demonictutor11application12game_serviceINtB2_11GameServiceNtNtNtB6_14infrastructure11event_store18InMemoryEventStoreNtNtB1m_9event_bus16InMemoryEventBusE3newCsqDz8nazDVt_9draw_card
FN:128,_RNvMNtNtCs44BQeM2UY80_12demonictutor11application12game_serviceINtB2_11GameServiceNtNtNtB6_14infrastructure11event_store18InMemoryEventStoreNtNtB1m_9event_bus16InMemoryEventBusE9draw_cardCsqDz8nazDVt_9draw_card
FN:84,_RNvMNtNtCs44BQeM2UY80_12demonictutor11application12game_serviceINtB2_11GameServiceNtNtNtB6_14infrastructure11event_store18InMemoryEventStoreNtNtB1m_9event_bus16InMemoryEventBusE9play_landCsqDz8nazDVt_9draw_card
FN:42,_RNvMNtNtCs44BQeM2UY80_12demonictutor11application12game_serviceINtB2_11GameServiceNtNtNtB6_14infrastructure11event_store18InMemoryEventStoreNtNtB1m_9event_bus16InMemoryEventBusE10start_gameCskALQQH4Uu52_8mulligan
FN:106,_RNvMNtNtCs44BQeM2UY80_12demonictutor11application12game_serviceINtB2_11GameServiceNtNtNtB6_14infrastructure11event_store18InMemoryEventStoreNtNtB1m_9event_bus16InMemoryEventBusE12advance_turnCskALQQH4Uu52_8mulligan
FN:60,_RNvMNtNtCs44BQeM2UY80_12demonictutor11application12game_serviceINtB2_11GameServiceNtNtNtB6_14infrastructure11event_store18InMemoryEventStoreNtNtB1m_9event_bus16InMemoryEventBusE18deal_opening_handsCskALQQH4Uu52_8mulligan
FN:30,_RNvMNtNtCs44BQeM2UY80_12demonictutor11application12game_serviceINtB2_11GameServiceNtNtNtB6_14infrastructure11event_store18InMemoryEventStoreNtNtB1m_9event_bus16InMemoryEventBusE3newCskALQQH4Uu52_8mulligan
FN:150,_RNvMNtNtCs44BQeM2UY80_12demonictutor11application12game_serviceINtB2_11GameServiceNtNtNtB6_14infrastructure11event_store18InMemoryEventStoreNtNtB1m_9event_bus16InMemoryEventBusE8mulliganCskALQQH4Uu52_8mulligan
FN:42,_RNvMNtNtCs44BQeM2UY80_12demonictutor11application12game_serviceINtB2_11GameServiceNtNtNtB6_14infrastructure11event_store18InMemoryEventStoreNtNtB1m_9event_bus16InMemoryEventBusE10start_gameCs6CsADadE681_9play_land
FN:106,_RNvMNtNtCs44BQeM2UY80_12demonictutor11application12game_serviceINtB2_11GameServiceNtNtNtB6_14infrastructure11event_store18InMemoryEventStoreNtNtB1m_9event_bus16InMemoryEventBusE12advance_turnCs6CsADadE681_9play_land
FN:60,_RNvMNtNtCs44BQeM2UY80_12demonictutor11application12game_serviceINtB2_11GameServiceNtNtNtB6_14infrastructure11event_store18InMemoryEventStoreNtNtB1m_9event_bus16InMemoryEventBusE18deal_opening_handsCs6CsADadE681_9play_land
FN:30,_RNvMNtNtCs44BQeM2UY80_12demonictutor11application12game_serviceINtB2_11GameServiceNtNtNtB6_14infrastructure11event_store18InMemoryEventStoreNtNtB1m_9event_bus16InMemoryEventBusE3newCs6CsADadE681_9play_land
FN:84,_RNvMNtNtCs44BQeM2UY80_12demonictutor11application12game_serviceINtB2_11GameServiceNtNtNtB6_14infrastructure11event_store18InMemoryEventStoreNtNtB1m_9event_bus16InMemoryEventBusE9play_landCs6CsADadE681_9play_land
FN:42,_RNvMNtNtCs44BQeM2UY80_12demonictutor11application12game_serviceINtB2_11GameServiceNtNtNtB6_14infrastructure11event_store18InMemoryEventStoreNtNtB1m_9event_bus16InMemoryEventBusE10start_gameCseXc8uLSNgsW_10start_game
FN:30,_RNvMNtNtCs44BQeM2UY80_12demonictutor11application12game_serviceINtB2_11GameServiceNtNtNtB6_14infrastructure11event_store18InMemoryEventStoreNtNtB1m_9event_bus16InMemoryEventBusE3newCseXc8uLSNgsW_10start_game
FNDA:4,_RNvMNtNtCs44BQeM2UY80_12demonictutor11application12game_serviceINtB2_11GameServiceNtNtNtB6_14infrastructure11event_store18InMemoryEventStoreNtNtB1m_9event_bus16InMemoryEventBusE10start_gameCsaugSN2uZP1X_12advance_turn
FNDA:6,_RNvMNtNtCs44BQeM2UY80_12demonictutor11application12game_serviceINtB2_11GameServiceNtNtNtB6_14infrastructure11event_store18InMemoryEventStoreNtNtB1m_9event_bus16InMemoryEventBusE12advance_turnCsaugSN2uZP1X_12advance_turn
FNDA:2,_RNvMNtNtCs44BQeM2UY80_12demonictutor11application12game_serviceINtB2_11GameServiceNtNtNtB6_14infrastructure11event_store18InMemoryEventStoreNtNtB1m_9event_bus16InMemoryEventBusE18deal_opening_handsCsaugSN2uZP1X_12advance_turn
FNDA:6,_RNvMNtNtCs44BQeM2UY80_12demonictutor11application12game_serviceINtB2_11GameServiceNtNtNtB6_14infrastructure11event_store18InMemoryEventStoreNtNtB1m_9event_bus16InMemoryEventBusE3newCsaugSN2uZP1X_12advance_turn
FNDA:3,_RNvMNtNtCs44BQeM2UY80_12demonictutor11application12game_serviceINtB2_11GameServiceNtNtNtB6_14infrastructure11event_store18InMemoryEventStoreNtNtB1m_9event_bus16InMemoryEventBusE9play_landCsaugSN2uZP1X_12advance_turn
FNDA:4,_RNvMNtNtCs44BQeM2UY80_12demonictutor11application12game_serviceINtB2_11GameServiceNtNtNtB6_14infrastructure11event_store18InMemoryEventStoreNtNtB1m_9event_bus16InMemoryEventBusE10start_gameCsQDGLTnpKR1_18deal_opening_hands
FNDA:4,_RNvMNtNtCs44BQeM2UY80_12demonictutor11application12game_serviceINtB2_11GameServiceNtNtNtB6_14infrastructure11event_store18InMemoryEventStoreNtNtB1m_9event_bus16InMemoryEventBusE18deal_opening_handsCsQDGLTnpKR1_18deal_opening_hands
FNDA:4,_RNvMNtNtCs44BQeM2UY80_12demonictutor11application12game_serviceINtB2_11GameServiceNtNtNtB6_14infrastructure11event_store18InMemoryEventStoreNtNtB1m_9event_bus16InMemoryEventBusE3newCsQDGLTnpKR1_18deal_opening_hands
FNDA:0,_RNvMNtNtCsfSYmbtmwwOB_12demonictutor11application12game_serviceINtB2_11GameServiceppE10start_gameB6_
FNDA:0,_RNvMNtNtCsfSYmbtmwwOB_12demonictutor11application12game_serviceINtB2_11GameServiceppE12advance_turnB6_
FNDA:0,_RNvMNtNtCsfSYmbtmwwOB_12demonictutor11application12game_serviceINtB2_11GameServiceppE18deal_opening_handsB6_
FNDA:0,_RNvMNtNtCsfSYmbtmwwOB_12demonictutor11application12game_serviceINtB2_11GameServiceppE3newB6_
FNDA:0,_RNvMNtNtCsfSYmbtmwwOB_12demonictutor11application12game_serviceINtB2_11GameServiceppE8mulliganB6_
FNDA:0,_RNvMNtNtCsfSYmbtmwwOB_12demonictutor11application12game_serviceINtB2_11GameServiceppE9draw_cardB6_
FNDA:0,_RNvMNtNtCsfSYmbtmwwOB_12demonictutor11application12game_serviceINtB2_11GameServiceppE9play_landB6_
FNDA:6,_RNvMNtNtCs44BQeM2UY80_12demonictutor11application12game_serviceINtB2_11GameServiceNtNtNtB6_14infrastructure11event_store18InMemoryEventStoreNtNtB1m_9event_bus16InMemoryEventBusE10start_gameCsqDz8nazDVt_9draw_card
FNDA:5,_RNvMNtNtCs44BQeM2UY80_12demonictutor11application12game_serviceINtB2_11GameServiceNtNtNtB6_14infrastructure11event_store18InMemoryEventStoreNtNtB1m_9event_bus16InMemoryEventBusE12advance_turnCsqDz8nazDVt_9draw_card
FNDA:6,_RNvMNtNtCs44BQeM2UY80_12demonictutor11application12game_serviceINtB2_11GameServiceNtNtNtB6_14infrastructure11event_store18InMemoryEventStoreNtNtB1m_9event_bus16InMemoryEventBusE18deal_opening_handsCsqDz8nazDVt_9draw_card
FNDA:8,_RNvMNtNtCs44BQeM2UY80_12demonictutor11application12game_serviceINtB2_11GameServiceNtNtNtB6_14infrastructure11event_store18InMemoryEventStoreNtNtB1m_9event_bus16InMemoryEventBusE3newCsqDz8nazDVt_9draw_card
FNDA:6,_RNvMNtNtCs44BQeM2UY80_12demonictutor11application12game_serviceINtB2_11GameServiceNtNtNtB6_14infrastructure11event_store18InMemoryEventStoreNtNtB1m_9event_bus16InMemoryEventBusE9draw_cardCsqDz8nazDVt_9draw_card
FNDA:1,_RNvMNtNtCs44BQeM2UY80_12demonictutor11application12game_serviceINtB2_11GameServiceNtNtNtB6_14infrastructure11event_store18InMemoryEventStoreNtNtB1m_9event_bus16InMemoryEventBusE9play_landCsqDz8nazDVt_9draw_card
FNDA:4,_RNvMNtNtCs44BQeM2UY80_12demonictutor11application12game_serviceINtB2_11GameServiceNtNtNtB6_14infrastructure11event_store18InMemoryEventStoreNtNtB1m_9event_bus16InMemoryEventBusE10start_gameCskALQQH4Uu52_8mulligan
FNDA:1,_RNvMNtNtCs44BQeM2UY80_12demonictutor11application12game_serviceINtB2_11GameServiceNtNtNtB6_14infrastructure11event_store18InMemoryEventStoreNtNtB1m_9event_bus16InMemoryEventBusE12advance_turnCskALQQH4Uu52_8mulligan
FNDA:3,_RNvMNtNtCs44BQeM2UY80_12demonictutor11application12game_serviceINtB2_11GameServiceNtNtNtB6_14infrastructure11event_store18InMemoryEventStoreNtNtB1m_9event_bus16InMemoryEventBusE18deal_opening_handsCskALQQH4Uu52_8mulligan
FNDA:4,_RNvMNtNtCs44BQeM2UY80_12demonictutor11application12game_serviceINtB2_11GameServiceNtNtNtB6_14infrastructure11event_store18InMemoryEventStoreNtNtB1m_9event_bus16InMemoryEventBusE3newCskALQQH4Uu52_8mulligan
FNDA:5,_RNvMNtNtCs44BQeM2UY80_12demonictutor11application12game_serviceINtB2_11GameServiceNtNtNtB6_14infrastructure11event_store18InMemoryEventStoreNtNtB1m_9event_bus16InMemoryEventBusE8mulliganCskALQQH4Uu52_8mulligan
FNDA:6,_RNvMNtNtCs44BQeM2UY80_12demonictutor11application12game_serviceINtB2_11GameServiceNtNtNtB6_14infrastructure11event_store18InMemoryEventStoreNtNtB1m_9event_bus16InMemoryEventBusE10start_gameCs6CsADadE681_9play_land
FNDA:6,_RNvMNtNtCs44BQeM2UY80_12demonictutor11application12game_serviceINtB2_11GameServiceNtNtNtB6_14infrastructure11event_store18InMemoryEventStoreNtNtB1m_9event_bus16InMemoryEventBusE12advance_turnCs6CsADadE681_9play_land
FNDA:6,_RNvMNtNtCs44BQeM2UY80_12demonictutor11application12game_serviceINtB2_11GameServiceNtNtNtB6_14infrastructure11event_store18InMemoryEventStoreNtNtB1m_9event_bus16InMemoryEventBusE18deal_opening_handsCs6CsADadE681_9play_land
FNDA:12,_RNvMNtNtCs44BQeM2UY80_12demonictutor11application12game_serviceINtB2_11GameServiceNtNtNtB6_14infrastructure11event_store18InMemoryEventStoreNtNtB1m_9event_bus16InMemoryEventBusE3newCs6CsADadE681_9play_land
FNDA:7,_RNvMNtNtCs44BQeM2UY80_12demonictutor11application12game_serviceINtB2_11GameServiceNtNtNtB6_14infrastructure11event_store18InMemoryEventStoreNtNtB1m_9event_bus16InMemoryEventBusE9play_landCs6CsADadE681_9play_land
FNDA:4,_RNvMNtNtCs44BQeM2UY80_12demonictutor11application12game_serviceINtB2_11GameServiceNtNtNtB6_14infrastructure11event_store18InMemoryEventStoreNtNtB1m_9event_bus16InMemoryEventBusE10start_gameCseXc8uLSNgsW_10start_game
FNDA:4,_RNvMNtNtCs44BQeM2UY80_12demonictutor11application12game_serviceINtB2_11GameServiceNtNtNtB6_14infrastructure11event_store18InMemoryEventStoreNtNtB1m_9event_bus16InMemoryEventBusE3newCseXc8uLSNgsW_10start_game
FNF:7
FNH:7
DA:30,38
DA:31,38
DA:32,38
DA:33,38
DA:34,38
DA:35,38
DA:42,28
DA:43,28
DA:44,25
DA:46,25
DA:47,25
DA:48,25
DA:49,25
DA:50,25
DA:52,25
DA:53,28
DA:60,21
DA:61,21
DA:62,21
DA:63,21
DA:64,21
DA:65,21
DA:67,20
DA:68,20
DA:69,20
DA:70,20
DA:71,39
DA:72,39
DA:73,39
DA:74,0
DA:76,20
DA:77,21
DA:84,11
DA:85,11
DA:86,11
DA:87,11
DA:88,11
DA:89,11
DA:90,6
DA:92,6
DA:93,6
DA:94,6
DA:95,6
DA:96,6
DA:98,6
DA:99,11
DA:106,18
DA:107,18
DA:108,18
DA:109,18
DA:110,18
DA:111,18
DA:112,18
DA:114,18
DA:115,18
DA:116,18
DA:117,18
DA:118,18
DA:120,18
DA:121,18
DA:128,6
DA:129,6
DA:130,6
DA:131,6
DA:132,6
DA:133,6
DA:134,4
DA:136,4
DA:137,4
DA:138,4
DA:139,4
DA:140,4
DA:142,4
DA:143,6
DA:150,5
DA:151,5
DA:152,5
DA:153,5
DA:154,5
DA:155,5
DA:156,2
DA:158,2
DA:159,2
DA:160,2
DA:161,2
DA:162,2
DA:164,2
DA:165,5
BRF:0
BRH:0
LF:88
LH:87
end_of_record
SF:/Users/adrianramos/Repos/demonictutor/src/domain/cards.rs
FN:36,_RNvMNtNtCs44BQeM2UY80_12demonictutor6domain5cardsNtB2_12CardInstance13definition_id
FN:31,_RNvMNtNtCs44BQeM2UY80_12demonictutor6domain5cardsNtB2_12CardInstance2id
FN:18,_RNvMNtNtCs44BQeM2UY80_12demonictutor6domain5cardsNtB2_12CardInstance3new
FN:41,_RNvMNtNtCs44BQeM2UY80_12demonictutor6domain5cardsNtB2_12CardInstance9card_type
FN:36,_RNvMNtNtCsfSYmbtmwwOB_12demonictutor6domain5cardsNtB2_12CardInstance13definition_id
FN:31,_RNvMNtNtCsfSYmbtmwwOB_12demonictutor6domain5cardsNtB2_12CardInstance2id
FN:18,_RNvMNtNtCsfSYmbtmwwOB_12demonictutor6domain5cardsNtB2_12CardInstance3new
FN:41,_RNvMNtNtCsfSYmbtmwwOB_12demonictutor6domain5cardsNtB2_12CardInstance9card_type
FNDA:0,_RNvMNtNtCs44BQeM2UY80_12demonictutor6domain5cardsNtB2_12CardInstance13definition_id
FNDA:300,_RNvMNtNtCs44BQeM2UY80_12demonictutor6domain5cardsNtB2_12CardInstance2id
FNDA:336,_RNvMNtNtCs44BQeM2UY80_12demonictutor6domain5cardsNtB2_12CardInstance3new
FNDA:7,_RNvMNtNtCs44BQeM2UY80_12demonictutor6domain5cardsNtB2_12CardInstance9card_type
FNDA:0,_RNvMNtNtCsfSYmbtmwwOB_12demonictutor6domain5cardsNtB2_12CardInstance13definition_id
FNDA:0,_RNvMNtNtCsfSYmbtmwwOB_12demonictutor6domain5cardsNtB2_12CardInstance2id
FNDA:0,_RNvMNtNtCsfSYmbtmwwOB_12demonictutor6domain5cardsNtB2_12CardInstance3new
FNDA:0,_RNvMNtNtCsfSYmbtmwwOB_12demonictutor6domain5cardsNtB2_12CardInstance9card_type
FNF:4
FNH:3
DA:18,336
DA:19,336
DA:20,336
DA:21,336
DA:22,336
DA:23,336
DA:24,336
DA:25,336
DA:26,336
DA:27,336
DA:28,336
DA:31,300
DA:32,300
DA:33,300
DA:36,0
DA:37,0
DA:38,0
DA:41,7
DA:42,7
DA:43,7
BRF:0
BRH:0
LF:20
LH:17
end_of_record
SF:/Users/adrianramos/Repos/demonictutor/src/domain/commands.rs
FN:14,_RNvMNtNtCs44BQeM2UY80_12demonictutor6domain8commandsNtB2_10PlayerDeck3new
FN:40,_RNvMs0_NtNtCs44BQeM2UY80_12demonictutor6domain8commandsNtB5_18PlayerDeckContents3new
FN:52,_RNvMs1_NtNtCs44BQeM2UY80_12demonictutor6domain8commandsNtB5_23DealOpeningHandsCommand3new
FN:65,_RNvMs2_NtNtCs44BQeM2UY80_12demonictutor6domain8commandsNtB5_15PlayLandCommand3new
FN:75,_RNvMs3_NtNtCs44BQeM2UY80_12demonictutor6domain8commandsNtB5_18AdvanceTurnCommand3new
FN:87,_RNvMs4_NtNtCs44BQeM2UY80_12demonictutor6domain8commandsNtB5_15DrawCardCommand3new
FN:99,_RNvMs5_NtNtCs44BQeM2UY80_12demonictutor6domain8commandsNtB5_15MulliganCommand3new
FN:27,_RNvMs_NtNtCs44BQeM2UY80_12demonictutor6domain8commandsNtB4_16StartGameCommand3new
FN:14,_RNvMNtNtCsfSYmbtmwwOB_12demonictutor6domain8commandsNtB2_10PlayerDeck3new
FN:40,_RNvMs0_NtNtCsfSYmbtmwwOB_12demonictutor6domain8commandsNtB5_18PlayerDeckContents3new
FN:52,_RNvMs1_NtNtCsfSYmbtmwwOB_12demonictutor6domain8commandsNtB5_23DealOpeningHandsCommand3new
FN:65,_RNvMs2_NtNtCsfSYmbtmwwOB_12demonictutor6domain8commandsNtB5_15PlayLandCommand3new
FN:75,_RNvMs3_NtNtCsfSYmbtmwwOB_12demonictutor6domain8commandsNtB5_18AdvanceTurnCommand3new
FN:87,_RNvMs4_NtNtCsfSYmbtmwwOB_12demonictutor6domain8commandsNtB5_15DrawCardCommand3new
FN:99,_RNvMs5_NtNtCsfSYmbtmwwOB_12demonictutor6domain8commandsNtB5_15MulliganCommand3new
FN:27,_RNvMs_NtNtCsfSYmbtmwwOB_12demonictutor6domain8commandsNtB4_16StartGameCommand3new
FNDA:56,_RNvMNtNtCs44BQeM2UY80_12demonictutor6domain8commandsNtB2_10PlayerDeck3new
FNDA:40,_RNvMs0_NtNtCs44BQeM2UY80_12demonictutor6domain8commandsNtB5_18PlayerDeckContents3new
FNDA:21,_RNvMs1_NtNtCs44BQeM2UY80_12demonictutor6domain8commandsNtB5_23DealOpeningHandsCommand3new
FNDA:11,_RNvMs2_NtNtCs44BQeM2UY80_12demonictutor6domain8commandsNtB5_15PlayLandCommand3new
FNDA:18,_RNvMs3_NtNtCs44BQeM2UY80_12demonictutor6domain8commandsNtB5_18AdvanceTurnCommand3new
FNDA:6,_RNvMs4_NtNtCs44BQeM2UY80_12demonictutor6domain8commandsNtB5_15DrawCardCommand3new
FNDA:5,_RNvMs5_NtNtCs44BQeM2UY80_12demonictutor6domain8commandsNtB5_15MulliganCommand3new
FNDA:28,_RNvMs_NtNtCs44BQeM2UY80_12demonictutor6domain8commandsNtB4_16StartGameCommand3new
FNDA:0,_RNvMNtNtCsfSYmbtmwwOB_12demonictutor6domain8commandsNtB2_10PlayerDeck3new
FNDA:0,_RNvMs0_NtNtCsfSYmbtmwwOB_12demonictutor6domain8commandsNtB5_18PlayerDeckContents3new
FNDA:0,_RNvMs1_NtNtCsfSYmbtmwwOB_12demonictutor6domain8commandsNtB5_23DealOpeningHandsCommand3new
FNDA:0,_RNvMs2_NtNtCsfSYmbtmwwOB_12demonictutor6domain8commandsNtB5_15PlayLandCommand3new
FNDA:0,_RNvMs3_NtNtCsfSYmbtmwwOB_12demonictutor6domain8commandsNtB5_18AdvanceTurnCommand3new
FNDA:0,_RNvMs4_NtNtCsfSYmbtmwwOB_12demonictutor6domain8commandsNtB5_15DrawCardCommand3new
FNDA:0,_RNvMs5_NtNtCsfSYmbtmwwOB_12demonictutor6domain8commandsNtB5_15MulliganCommand3new
FNDA:0,_RNvMs_NtNtCsfSYmbtmwwOB_12demonictutor6domain8commandsNtB4_16StartGameCommand3new
FNF:8
FNH:8
DA:14,56
DA:15,56
DA:16,56
DA:27,28
DA:28,28
DA:29,28
DA:40,40
DA:41,40
DA:42,40
DA:52,21
DA:53,21
DA:54,21
DA:65,11
DA:66,11
DA:67,11
DA:75,18
DA:76,18
DA:77,18
DA:87,6
DA:88,6
DA:89,6
DA:99,5
DA:100,5
DA:101,5
BRF:0
BRH:0
LF:24
LH:24
end_of_record
SF:/Users/adrianramos/Repos/demonictutor/src/domain/errors.rs
FN:49,_RNvXNtNtCsfSYmbtmwwOB_12demonictutor6domain6errorsNtB2_11DomainErrorNtNtCsewIAYgoiDvj_4core3fmt7Display3fmt
FNDA:0,_RNvXNtNtCsfSYmbtmwwOB_12demonictutor6domain6errorsNtB2_11DomainErrorNtNtCsewIAYgoiDvj_4core3fmt7Display3fmt
FNF:1
FNH:0
DA:49,0
DA:50,0
DA:51,0
DA:52,0
DA:54,0
DA:55,0
DA:57,0
DA:58,0
DA:60,0
DA:61,0
DA:64,0
DA:65,0
DA:66,0
DA:68,0
DA:69,0
DA:74,0
DA:75,0
DA:77,0
DA:78,0
DA:81,0
DA:82,0
DA:84,0
DA:85,0
DA:90,0
DA:92,0
DA:93,0
DA:95,0
DA:96,0
DA:98,0
DA:99,0
DA:102,0
DA:104,0
DA:105,0
DA:108,0
BRF:0
BRH:0
LF:34
LH:0
end_of_record
SF:/Users/adrianramos/Repos/demonictutor/src/domain/events.rs
FN:51,_RNvMNtNtCs44BQeM2UY80_12demonictutor6domain6eventsNtB2_11DomainEvent13as_card_drawn
FN:33,_RNvMNtNtCs44BQeM2UY80_12demonictutor6domain6eventsNtB2_11DomainEvent14as_land_played
FN:15,_RNvMNtNtCs44BQeM2UY80_12demonictutor6domain6eventsNtB2_11DomainEvent15as_game_started
FN:42,_RNvMNtNtCs44BQeM2UY80_12demonictutor6domain6eventsNtB2_11DomainEvent16as_turn_advanced
FN:60,_RNvMNtNtCs44BQeM2UY80_12demonictutor6domain6eventsNtB2_11DomainEvent17as_mulligan_taken
FN:24,_RNvMNtNtCs44BQeM2UY80_12demonictutor6domain6eventsNtB2_11DomainEvent21as_opening_hand_dealt
FN:91,_RNvMs0_NtNtCs44BQeM2UY80_12demonictutor6domain6eventsNtB5_16OpeningHandDealt3new
FN:109,_RNvMs1_NtNtCs44BQeM2UY80_12demonictutor6domain6eventsNtB5_10LandPlayed3new
FN:126,_RNvMs2_NtNtCs44BQeM2UY80_12demonictutor6domain6eventsNtB5_12TurnAdvanced3new
FN:143,_RNvMs3_NtNtCs44BQeM2UY80_12demonictutor6domain6eventsNtB5_9CardDrawn3new
FN:160,_RNvMs4_NtNtCs44BQeM2UY80_12demonictutor6domain6eventsNtB5_13MulliganTaken3new
FN:77,_RNvMs_NtNtCs44BQeM2UY80_12demonictutor6domain6eventsNtB4_11GameStarted3new
FN:166,_RNvXs5_NtNtCs44BQeM2UY80_12demonictutor6domain6eventsNtB5_11DomainEventINtNtCsewIAYgoiDvj_4core7convert4FromNtB5_11GameStartedE4from
FN:172,_RNvXs6_NtNtCs44BQeM2UY80_12demonictutor6domain6eventsNtB5_11DomainEventINtNtCsewIAYgoiDvj_4core7convert4FromNtB5_16OpeningHandDealtE4from
FN:178,_RNvXs7_NtNtCs44BQeM2UY80_12demonictutor6domain6eventsNtB5_11DomainEventINtNtCsewIAYgoiDvj_4core7convert4FromNtB5_10LandPlayedE4from
FN:184,_RNvXs8_NtNtCs44BQeM2UY80_12demonictutor6domain6eventsNtB5_11DomainEventINtNtCsewIAYgoiDvj_4core7convert4FromNtB5_12TurnAdvancedE4from
FN:190,_RNvXs9_NtNtCs44BQeM2UY80_12demonictutor6domain6eventsNtB5_11DomainEventINtNtCsewIAYgoiDvj_4core7convert4FromNtB5_9CardDrawnE4from
FN:196,_RNvXsa_NtNtCs44BQeM2UY80_12demonictutor6domain6eventsNtB5_11DomainEventINtNtCsewIAYgoiDvj_4core7convert4FromNtB5_13MulliganTakenE4from
FN:51,_RNvMNtNtCsfSYmbtmwwOB_12demonictutor6domain6eventsNtB2_11DomainEvent13as_card_drawn
FN:33,_RNvMNtNtCsfSYmbtmwwOB_12demonictutor6domain6eventsNtB2_11DomainEvent14as_land_played
FN:15,_RNvMNtNtCsfSYmbtmwwOB_12demonictutor6domain6eventsNtB2_11DomainEvent15as_game_started
FN:42,_RNvMNtNtCsfSYmbtmwwOB_12demonictutor6domain6eventsNtB2_11DomainEvent16as_turn_advanced
FN:60,_RNvMNtNtCsfSYmbtmwwOB_12demonictutor6domain6eventsNtB2_11DomainEvent17as_mulligan_taken
FN:24,_RNvMNtNtCsfSYmbtmwwOB_12demonictutor6domain6eventsNtB2_11DomainEvent21as_opening_hand_dealt
FN:91,_RNvMs0_NtNtCsfSYmbtmwwOB_12demonictutor6domain6eventsNtB5_16OpeningHandDealt3new
FN:109,_RNvMs1_NtNtCsfSYmbtmwwOB_12demonictutor6domain6eventsNtB5_10LandPlayed3new
FN:126,_RNvMs2_NtNtCsfSYmbtmwwOB_12demonictutor6domain6eventsNtB5_12TurnAdvanced3new
FN:143,_RNvMs3_NtNtCsfSYmbtmwwOB_12demonictutor6domain6eventsNtB5_9CardDrawn3new
FN:160,_RNvMs4_NtNtCsfSYmbtmwwOB_12demonictutor6domain6eventsNtB5_13MulliganTaken3new
FN:77,_RNvMs_NtNtCsfSYmbtmwwOB_12demonictutor6domain6eventsNtB4_11GameStarted3new
FN:166,_RNvXs5_NtNtCsfSYmbtmwwOB_12demonictutor6domain6eventsNtB5_11DomainEventINtNtCsewIAYgoiDvj_4core7convert4FromNtB5_11GameStartedE4from
FN:172,_RNvXs6_NtNtCsfSYmbtmwwOB_12demonictutor6domain6eventsNtB5_11DomainEventINtNtCsewIAYgoiDvj_4core7convert4FromNtB5_16OpeningHandDealtE4from
FN:178,_RNvXs7_NtNtCsfSYmbtmwwOB_12demonictutor6domain6eventsNtB5_11DomainEventINtNtCsewIAYgoiDvj_4core7convert4FromNtB5_10LandPlayedE4from
FN:184,_RNvXs8_NtNtCsfSYmbtmwwOB_12demonictutor6domain6eventsNtB5_11DomainEventINtNtCsewIAYgoiDvj_4core7convert4FromNtB5_12TurnAdvancedE4from
FN:190,_RNvXs9_NtNtCsfSYmbtmwwOB_12demonictutor6domain6eventsNtB5_11DomainEventINtNtCsewIAYgoiDvj_4core7convert4FromNtB5_9CardDrawnE4from
FN:196,_RNvXsa_NtNtCsfSYmbtmwwOB_12demonictutor6domain6eventsNtB5_11DomainEventINtNtCsewIAYgoiDvj_4core7convert4FromNtB5_13MulliganTakenE4from
FNDA:0,_RNvMNtNtCs44BQeM2UY80_12demonictutor6domain6eventsNtB2_11DomainEvent13as_card_drawn
FNDA:0,_RNvMNtNtCs44BQeM2UY80_12demonictutor6domain6eventsNtB2_11DomainEvent14as_land_played
FNDA:0,_RNvMNtNtCs44BQeM2UY80_12demonictutor6domain6eventsNtB2_11DomainEvent15as_game_started
FNDA:0,_RNvMNtNtCs44BQeM2UY80_12demonictutor6domain6eventsNtB2_11DomainEvent16as_turn_advanced
FNDA:0,_RNvMNtNtCs44BQeM2UY80_12demonictutor6domain6eventsNtB2_11DomainEvent17as_mulligan_taken
FNDA:0,_RNvMNtNtCs44BQeM2UY80_12demonictutor6domain6eventsNtB2_11DomainEvent21as_opening_hand_dealt
FNDA:41,_RNvMs0_NtNtCs44BQeM2UY80_12demonictutor6domain6eventsNtB5_16OpeningHandDealt3new
FNDA:7,_RNvMs1_NtNtCs44BQeM2UY80_12demonictutor6domain6eventsNtB5_10LandPlayed3new
FNDA:19,_RNvMs2_NtNtCs44BQeM2UY80_12demonictutor6domain6eventsNtB5_12TurnAdvanced3new
FNDA:5,_RNvMs3_NtNtCs44BQeM2UY80_12demonictutor6domain6eventsNtB5_9CardDrawn3new
FNDA:3,_RNvMs4_NtNtCs44BQeM2UY80_12demonictutor6domain6eventsNtB5_13MulliganTaken3new
FNDA:31,_RNvMs_NtNtCs44BQeM2UY80_12demonictutor6domain6eventsNtB4_11GameStarted3new
FNDA:25,_RNvXs5_NtNtCs44BQeM2UY80_12demonictutor6domain6eventsNtB5_11DomainEventINtNtCsewIAYgoiDvj_4core7convert4FromNtB5_11GameStartedE4from
FNDA:39,_RNvXs6_NtNtCs44BQeM2UY80_12demonictutor6domain6eventsNtB5_11DomainEventINtNtCsewIAYgoiDvj_4core7convert4FromNtB5_16OpeningHandDealtE4from
FNDA:6,_RNvXs7_NtNtCs44BQeM2UY80_12demonictutor6domain6eventsNtB5_11DomainEventINtNtCsewIAYgoiDvj_4core7convert4FromNtB5_10LandPlayedE4from
FNDA:18,_RNvXs8_NtNtCs44BQeM2UY80_12demonictutor6domain6eventsNtB5_11DomainEventINtNtCsewIAYgoiDvj_4core7convert4FromNtB5_12TurnAdvancedE4from
FNDA:4,_RNvXs9_NtNtCs44BQeM2UY80_12demonictutor6domain6eventsNtB5_11DomainEventINtNtCsewIAYgoiDvj_4core7convert4FromNtB5_9CardDrawnE4from
FNDA:2,_RNvXsa_NtNtCs44BQeM2UY80_12demonictutor6domain6eventsNtB5_11DomainEventINtNtCsewIAYgoiDvj_4core7convert4FromNtB5_13MulliganTakenE4from
FNDA:0,_RNvMNtNtCsfSYmbtmwwOB_12demonictutor6domain6eventsNtB2_11DomainEvent13as_card_drawn
FNDA:0,_RNvMNtNtCsfSYmbtmwwOB_12demonictutor6domain6eventsNtB2_11DomainEvent14as_land_played
FNDA:0,_RNvMNtNtCsfSYmbtmwwOB_12demonictutor6domain6eventsNtB2_11DomainEvent15as_game_started
FNDA:0,_RNvMNtNtCsfSYmbtmwwOB_12demonictutor6domain6eventsNtB2_11DomainEvent16as_turn_advanced
FNDA:0,_RNvMNtNtCsfSYmbtmwwOB_12demonictutor6domain6eventsNtB2_11DomainEvent17as_mulligan_taken
FNDA:0,_RNvMNtNtCsfSYmbtmwwOB_12demonictutor6domain6eventsNtB2_11DomainEvent21as_opening_hand_dealt
FNDA:0,_RNvMs0_NtNtCsfSYmbtmwwOB_12demonictutor6domain6eventsNtB5_16OpeningHandDealt3new
FNDA:0,_RNvMs1_NtNtCsfSYmbtmwwOB_12demonictutor6domain6eventsNtB5_10LandPlayed3new
FNDA:0,_RNvMs2_NtNtCsfSYmbtmwwOB_12demonictutor6domain6eventsNtB5_12TurnAdvanced3new
FNDA:0,_RNvMs3_NtNtCsfSYmbtmwwOB_12demonictutor6domain6eventsNtB5_9CardDrawn3new
FNDA:0,_RNvMs4_NtNtCsfSYmbtmwwOB_12demonictutor6domain6eventsNtB5_13MulliganTaken3new
FNDA:0,_RNvMs_NtNtCsfSYmbtmwwOB_12demonictutor6domain6eventsNtB4_11GameStarted3new
FNDA:0,_RNvXs5_NtNtCsfSYmbtmwwOB_12demonictutor6domain6eventsNtB5_11DomainEventINtNtCsewIAYgoiDvj_4core7convert4FromNtB5_11GameStartedE4from
FNDA:0,_RNvXs6_NtNtCsfSYmbtmwwOB_12demonictutor6domain6eventsNtB5_11DomainEventINtNtCsewIAYgoiDvj_4core7convert4FromNtB5_16OpeningHandDealtE4from
FNDA:0,_RNvXs7_NtNtCsfSYmbtmwwOB_12demonictutor6domain6eventsNtB5_11DomainEventINtNtCsewIAYgoiDvj_4core7convert4FromNtB5_10LandPlayedE4from
FNDA:0,_RNvXs8_NtNtCsfSYmbtmwwOB_12demonictutor6domain6eventsNtB5_11DomainEventINtNtCsewIAYgoiDvj_4core7convert4FromNtB5_12TurnAdvancedE4from
FNDA:0,_RNvXs9_NtNtCsfSYmbtmwwOB_12demonictutor6domain6eventsNtB5_11DomainEventINtNtCsewIAYgoiDvj_4core7convert4FromNtB5_9CardDrawnE4from
FNDA:0,_RNvXsa_NtNtCsfSYmbtmwwOB_12demonictutor6domain6eventsNtB5_11DomainEventINtNtCsewIAYgoiDvj_4core7convert4FromNtB5_13MulliganTakenE4from
FNF:18
FNH:12
DA:15,0
DA:16,0
DA:17,0
DA:19,0
DA:21,0
DA:24,0
DA:25,0
DA:26,0
DA:28,0
DA:30,0
DA:33,0
DA:34,0
DA:35,0
DA:37,0
DA:39,0
DA:42,0
DA:43,0
DA:44,0
DA:46,0
DA:48,0
DA:51,0
DA:52,0
DA:53,0
DA:55,0
DA:57,0
DA:60,0
DA:61,0
DA:62,0
DA:64,0
DA:66,0
DA:77,31
DA:78,31
DA:79,31
DA:91,41
DA:92,41
DA:93,41
DA:94,41
DA:95,41
DA:96,41
DA:97,41
DA:109,7
DA:110,7
DA:111,7
DA:112,7
DA:113,7
DA:114,7
DA:115,7
DA:126,19
DA:127,19
DA:128,19
DA:129,19
DA:130,19
DA:131,19
DA:143,5
DA:144,5
DA:145,5
DA:146,5
DA:147,5
DA:148,5
DA:149,5
DA:160,3
DA:161,3
DA:162,3
DA:166,25
DA:167,25
DA:168,25
DA:172,39
DA:173,39
DA:174,39
DA:178,6
DA:179,6
DA:180,6
DA:184,18
DA:185,18
DA:186,18
DA:190,4
DA:191,4
DA:192,4
DA:196,2
DA:197,2
DA:198,2
BRF:0
BRH:0
LF:81
LH:51
end_of_record
SF:/Users/adrianramos/Repos/demonictutor/src/domain/game.rs
FN:67,_RNvMNtNtNtCs44BQeM2UY80_12demonictutor6domain4game6playerNtB2_6Player11battlefield
FN:76,_RNvMNtNtNtCs44BQeM2UY80_12demonictutor6domain4game6playerNtB2_6Player11library_mut
FN:93,_RNvMNtNtNtCs44BQeM2UY80_12demonictutor6domain4game6playerNtB2_6Player13mulligan_used
FN:84,_RNvMNtNtNtCs44BQeM2UY80_12demonictutor6domain4game6playerNtB2_6Player15battlefield_mut
FN:97,_RNvMNtNtNtCs44BQeM2UY80_12demonictutor6domain4game6playerNtB2_6Player17mulligan_used_mut
FN:72,_RNvMNtNtNtCs44BQeM2UY80_12demonictutor6domain4game6playerNtB2_6Player22lands_played_this_turn
FN:88,_RNvMNtNtNtCs44BQeM2UY80_12demonictutor6domain4game6playerNtB2_6Player26lands_played_this_turn_mut
FN:47,_RNvMNtNtNtCs44BQeM2UY80_12demonictutor6domain4game6playerNtB2_6Player2id
FN:34,_RNvMNtNtNtCs44BQeM2UY80_12demonictutor6domain4game6playerNtB2_6Player3new
FN:57,_RNvMNtNtNtCs44BQeM2UY80_12demonictutor6domain4game6playerNtB2_6Player4hand
FN:52,_RNvMNtNtNtCs44BQeM2UY80_12demonictutor6domain4game6playerNtB2_6Player7deck_id
FN:62,_RNvMNtNtNtCs44BQeM2UY80_12demonictutor6domain4game6playerNtB2_6Player7library
FN:80,_RNvMNtNtNtCs44BQeM2UY80_12demonictutor6domain4game6playerNtB2_6Player8hand_mut
FN:402,_RNvMNtNtCs44BQeM2UY80_12demonictutor6domain4gameNtB2_4Game12advance_turn
FN:120,_RNvMNtNtCs44BQeM2UY80_12demonictutor6domain4gameNtB2_4Game13active_player
FN:202,_RNvMNtNtCs44BQeM2UY80_12demonictutor6domain4gameNtB2_4Game18deal_opening_hands
FN:115,_RNvMNtNtCs44BQeM2UY80_12demonictutor6domain4gameNtB2_4Game2id
FN:125,_RNvMNtNtCs44BQeM2UY80_12demonictutor6domain4gameNtB2_4Game5phase
FN:146,_RNvMNtNtCs44BQeM2UY80_12demonictutor6domain4gameNtB2_4Game5start
FN:130,_RNvMNtNtCs44BQeM2UY80_12demonictutor6domain4gameNtB2_4Game7players
FN:292,_RNvMNtNtCs44BQeM2UY80_12demonictutor6domain4gameNtB2_4Game8mulligan
FN:436,_RNvMNtNtCs44BQeM2UY80_12demonictutor6domain4gameNtB2_4Game9draw_card
FN:350,_RNvMNtNtCs44BQeM2UY80_12demonictutor6domain4gameNtB2_4Game9play_land
FN:406,_RNCNvMNtNtCs44BQeM2UY80_12demonictutor6domain4gameNtB4_4Game12advance_turn0B8_
FN:408,_RNCNvMNtNtCs44BQeM2UY80_12demonictutor6domain4gameNtB4_4Game12advance_turns_0B8_
FN:209,_RNCNvMNtNtCs44BQeM2UY80_12demonictutor6domain4gameNtB4_4Game18deal_opening_hands0B8_
FN:233,_RNCNvMNtNtCs44BQeM2UY80_12demonictutor6domain4gameNtB4_4Game18deal_opening_handss0_0B8_
FN:243,_RNCNvMNtNtCs44BQeM2UY80_12demonictutor6domain4gameNtB4_4Game18deal_opening_handss1_0B8_
FN:257,_RNCNvMNtNtCs44BQeM2UY80_12demonictutor6domain4gameNtB4_4Game18deal_opening_handss2_0B8_
FN:276,_RNCNvMNtNtCs44BQeM2UY80_12demonictutor6domain4gameNtB4_4Game18deal_opening_handss3_0B8_
FN:231,_RNCNvMNtNtCs44BQeM2UY80_12demonictutor6domain4gameNtB4_4Game18deal_opening_handss_0B8_
FN:175,_RNCNvMNtNtCs44BQeM2UY80_12demonictutor6domain4gameNtB4_4Game5start0B8_
FN:300,_RNCNvMNtNtCs44BQeM2UY80_12demonictutor6domain4gameNtB4_4Game8mulligan0B8_
FN:325,_RNCNvMNtNtCs44BQeM2UY80_12demonictutor6domain4gameNtB4_4Game8mulligans0_0B8_
FN:301,_RNCNvMNtNtCs44BQeM2UY80_12demonictutor6domain4gameNtB4_4Game8mulligans_0B8_
FN:453,_RNCNvMNtNtCs44BQeM2UY80_12demonictutor6domain4gameNtB4_4Game9draw_card0B8_
FN:463,_RNCNvMNtNtCs44BQeM2UY80_12demonictutor6domain4gameNtB4_4Game9draw_cards0_0B8_
FN:468,_RNCNvMNtNtCs44BQeM2UY80_12demonictutor6domain4gameNtB4_4Game9draw_cards1_0B8_
FN:454,_RNCNvMNtNtCs44BQeM2UY80_12demonictutor6domain4gameNtB4_4Game9draw_cards_0B8_
FN:365,_RNCNvMNtNtCs44BQeM2UY80_12demonictutor6domain4gameNtB4_4Game9play_land0B8_
FN:383,_RNCNvMNtNtCs44BQeM2UY80_12demonictutor6domain4gameNtB4_4Game9play_lands0_0B8_
FN:366,_RNCNvMNtNtCs44BQeM2UY80_12demonictutor6domain4gameNtB4_4Game9play_lands_0B8_
FN:406,_RNCNvMNtNtCsfSYmbtmwwOB_12demonictutor6domain4gameNtB4_4Game12advance_turn0B8_
FN:408,_RNCNvMNtNtCsfSYmbtmwwOB_12demonictutor6domain4gameNtB4_4Game12advance_turns_0B8_
FN:209,_RNCNvMNtNtCsfSYmbtmwwOB_12demonictutor6domain4gameNtB4_4Game18deal_opening_hands0B8_
FN:233,_RNCNvMNtNtCsfSYmbtmwwOB_12demonictutor6domain4gameNtB4_4Game18deal_opening_handss0_0B8_
FN:243,_RNCNvMNtNtCsfSYmbtmwwOB_12demonictutor6domain4gameNtB4_4Game18deal_opening_handss1_0B8_
FN:257,_RNCNvMNtNtCsfSYmbtmwwOB_12demonictutor6domain4gameNtB4_4Game18deal_opening_handss2_0B8_
FN:276,_RNCNvMNtNtCsfSYmbtmwwOB_12demonictutor6domain4gameNtB4_4Game18deal_opening_handss3_0B8_
FN:231,_RNCNvMNtNtCsfSYmbtmwwOB_12demonictutor6domain4gameNtB4_4Game18deal_opening_handss_0B8_
FN:175,_RNCNvMNtNtCsfSYmbtmwwOB_12demonictutor6domain4gameNtB4_4Game5start0B8_
FN:300,_RNCNvMNtNtCsfSYmbtmwwOB_12demonictutor6domain4gameNtB4_4Game8mulligan0B8_
FN:325,_RNCNvMNtNtCsfSYmbtmwwOB_12demonictutor6domain4gameNtB4_4Game8mulligans0_0B8_
FN:301,_RNCNvMNtNtCsfSYmbtmwwOB_12demonictutor6domain4gameNtB4_4Game8mulligans_0B8_
FN:453,_RNCNvMNtNtCsfSYmbtmwwOB_12demonictutor6domain4gameNtB4_4Game9draw_card0B8_
FN:463,_RNCNvMNtNtCsfSYmbtmwwOB_12demonictutor6domain4gameNtB4_4Game9draw_cards0_0B8_
FN:468,_RNCNvMNtNtCsfSYmbtmwwOB_12demonictutor6domain4gameNtB4_4Game9draw_cards1_0B8_
FN:454,_RNCNvMNtNtCsfSYmbtmwwOB_12demonictutor6domain4gameNtB4_4Game9draw_cards_0B8_
FN:365,_RNCNvMNtNtCsfSYmbtmwwOB_12demonictutor6domain4gameNtB4_4Game9play_land0B8_
FN:383,_RNCNvMNtNtCsfSYmbtmwwOB_12demonictutor6domain4gameNtB4_4Game9play_lands0_0B8_
FN:366,_RNCNvMNtNtCsfSYmbtmwwOB_12demonictutor6domain4gameNtB4_4Game9play_lands_0B8_
FN:402,_RNvMNtNtCsfSYmbtmwwOB_12demonictutor6domain4gameNtB2_4Game12advance_turn
FN:120,_RNvMNtNtCsfSYmbtmwwOB_12demonictutor6domain4gameNtB2_4Game13active_player
FN:202,_RNvMNtNtCsfSYmbtmwwOB_12demonictutor6domain4gameNtB2_4Game18deal_opening_hands
FN:115,_RNvMNtNtCsfSYmbtmwwOB_12demonictutor6domain4gameNtB2_4Game2id
FN:125,_RNvMNtNtCsfSYmbtmwwOB_12demonictutor6domain4gameNtB2_4Game5phase
FN:146,_RNvMNtNtCsfSYmbtmwwOB_12demonictutor6domain4gameNtB2_4Game5start
FN:130,_RNvMNtNtCsfSYmbtmwwOB_12demonictutor6domain4gameNtB2_4Game7players
FN:292,_RNvMNtNtCsfSYmbtmwwOB_12demonictutor6domain4gameNtB2_4Game8mulligan
FN:436,_RNvMNtNtCsfSYmbtmwwOB_12demonictutor6domain4gameNtB2_4Game9draw_card
FN:350,_RNvMNtNtCsfSYmbtmwwOB_12demonictutor6domain4gameNtB2_4Game9play_land
FN:67,_RNvMNtNtNtCsfSYmbtmwwOB_12demonictutor6domain4game6playerNtB2_6Player11battlefield
FN:76,_RNvMNtNtNtCsfSYmbtmwwOB_12demonictutor6domain4game6playerNtB2_6Player11library_mut
FN:93,_RNvMNtNtNtCsfSYmbtmwwOB_12demonictutor6domain4game6playerNtB2_6Player13mulligan_used
FN:84,_RNvMNtNtNtCsfSYmbtmwwOB_12demonictutor6domain4game6playerNtB2_6Player15battlefield_mut
FN:97,_RNvMNtNtNtCsfSYmbtmwwOB_12demonictutor6domain4game6playerNtB2_6Player17mulligan_used_mut
FN:72,_RNvMNtNtNtCsfSYmbtmwwOB_12demonictutor6domain4game6playerNtB2_6Player22lands_played_this_turn
FN:88,_RNvMNtNtNtCsfSYmbtmwwOB_12demonictutor6domain4game6playerNtB2_6Player26lands_played_this_turn_mut
FN:47,_RNvMNtNtNtCsfSYmbtmwwOB_12demonictutor6domain4game6playerNtB2_6Player2id
FN:34,_RNvMNtNtNtCsfSYmbtmwwOB_12demonictutor6domain4game6playerNtB2_6Player3new
FN:57,_RNvMNtNtNtCsfSYmbtmwwOB_12demonictutor6domain4game6playerNtB2_6Player4hand
FN:52,_RNvMNtNtNtCsfSYmbtmwwOB_12demonictutor6domain4game6playerNtB2_6Player7deck_id
FN:62,_RNvMNtNtNtCsfSYmbtmwwOB_12demonictutor6domain4game6playerNtB2_6Player7library
FN:80,_RNvMNtNtNtCsfSYmbtmwwOB_12demonictutor6domain4game6playerNtB2_6Player8hand_mut
FNDA:1,_RNvMNtNtNtCs44BQeM2UY80_12demonictutor6domain4game6playerNtB2_6Player11battlefield
FNDA:50,_RNvMNtNtNtCs44BQeM2UY80_12demonictutor6domain4game6playerNtB2_6Player11library_mut
FNDA:4,_RNvMNtNtNtCs44BQeM2UY80_12demonictutor6domain4game6playerNtB2_6Player13mulligan_used
FNDA:6,_RNvMNtNtNtCs44BQeM2UY80_12demonictutor6domain4game6playerNtB2_6Player15battlefield_mut
FNDA:2,_RNvMNtNtNtCs44BQeM2UY80_12demonictutor6domain4game6playerNtB2_6Player17mulligan_used_mut
FNDA:13,_RNvMNtNtNtCs44BQeM2UY80_12demonictutor6domain4game6playerNtB2_6Player22lands_played_this_turn
FNDA:42,_RNvMNtNtNtCs44BQeM2UY80_12demonictutor6domain4game6playerNtB2_6Player26lands_played_this_turn_mut
FNDA:187,_RNvMNtNtNtCs44BQeM2UY80_12demonictutor6domain4game6playerNtB2_6Player2id
FNDA:51,_RNvMNtNtNtCs44BQeM2UY80_12demonictutor6domain4game6playerNtB2_6Player3new
FNDA:8,_RNvMNtNtNtCs44BQeM2UY80_12demonictutor6domain4game6playerNtB2_6Player4hand
FNDA:0,_RNvMNtNtNtCs44BQeM2UY80_12demonictutor6domain4game6playerNtB2_6Player7deck_id
FNDA:7,_RNvMNtNtNtCs44BQeM2UY80_12demonictutor6domain4game6playerNtB2_6Player7library
FNDA:56,_RNvMNtNtNtCs44BQeM2UY80_12demonictutor6domain4game6playerNtB2_6Player8hand_mut
FNDA:18,_RNvMNtNtCs44BQeM2UY80_12demonictutor6domain4gameNtB2_4Game12advance_turn
FNDA:2,_RNvMNtNtCs44BQeM2UY80_12demonictutor6domain4gameNtB2_4Game13active_player
FNDA:21,_RNvMNtNtCs44BQeM2UY80_12demonictutor6domain4gameNtB2_4Game18deal_opening_hands
FNDA:76,_RNvMNtNtCs44BQeM2UY80_12demonictutor6domain4gameNtB2_4Game2id
FNDA:6,_RNvMNtNtCs44BQeM2UY80_12demonictutor6domain4gameNtB2_4Game5phase
FNDA:28,_RNvMNtNtCs44BQeM2UY80_12demonictutor6domain4gameNtB2_4Game5start
FNDA:12,_RNvMNtNtCs44BQeM2UY80_12demonictutor6domain4gameNtB2_4Game7players
FNDA:5,_RNvMNtNtCs44BQeM2UY80_12demonictutor6domain4gameNtB2_4Game8mulligan
FNDA:6,_RNvMNtNtCs44BQeM2UY80_12demonictutor6domain4gameNtB2_4Game9draw_card
FNDA:11,_RNvMNtNtCs44BQeM2UY80_12demonictutor6domain4gameNtB2_4Game9play_land
FNDA:20,_RNCNvMNtNtCs44BQeM2UY80_12demonictutor6domain4gameNtB4_4Game12advance_turn0B8_
FNDA:0,_RNCNvMNtNtCs44BQeM2UY80_12demonictutor6domain4gameNtB4_4Game12advance_turns_0B8_
FNDA:59,_RNCNvMNtNtCs44BQeM2UY80_12demonictutor6domain4gameNtB4_4Game18deal_opening_hands0B8_
FNDA:0,_RNCNvMNtNtCs44BQeM2UY80_12demonictutor6domain4gameNtB4_4Game18deal_opening_handss0_0B8_
FNDA:273,_RNCNvMNtNtCs44BQeM2UY80_12demonictutor6domain4gameNtB4_4Game18deal_opening_handss1_0B8_
FNDA:63,_RNCNvMNtNtCs44BQeM2UY80_12demonictutor6domain4gameNtB4_4Game18deal_opening_handss2_0B8_
FNDA:273,_RNCNvMNtNtCs44BQeM2UY80_12demonictutor6domain4gameNtB4_4Game18deal_opening_handss3_0B8_
FNDA:58,_RNCNvMNtNtCs44BQeM2UY80_12demonictutor6domain4gameNtB4_4Game18deal_opening_handss_0B8_
FNDA:0,_RNCNvMNtNtCs44BQeM2UY80_12demonictutor6domain4gameNtB4_4Game5start0B8_
FNDA:4,_RNCNvMNtNtCs44BQeM2UY80_12demonictutor6domain4gameNtB4_4Game8mulligan0B8_
FNDA:0,_RNCNvMNtNtCs44BQeM2UY80_12demonictutor6domain4gameNtB4_4Game8mulligans0_0B8_
FNDA:0,_RNCNvMNtNtCs44BQeM2UY80_12demonictutor6domain4gameNtB4_4Game8mulligans_0B8_
FNDA:9,_RNCNvMNtNtCs44BQeM2UY80_12demonictutor6domain4gameNtB4_4Game9draw_card0B8_
FNDA:1,_RNCNvMNtNtCs44BQeM2UY80_12demonictutor6domain4gameNtB4_4Game9draw_cards0_0B8_
FNDA:0,_RNCNvMNtNtCs44BQeM2UY80_12demonictutor6domain4gameNtB4_4Game9draw_cards1_0B8_
FNDA:0,_RNCNvMNtNtCs44BQeM2UY80_12demonictutor6domain4gameNtB4_4Game9draw_cards_0B8_
FNDA:19,_RNCNvMNtNtCs44BQeM2UY80_12demonictutor6domain4gameNtB4_4Game9play_land0B8_
FNDA:2,_RNCNvMNtNtCs44BQeM2UY80_12demonictutor6domain4gameNtB4_4Game9play_lands0_0B8_
FNDA:0,_RNCNvMNtNtCs44BQeM2UY80_12demonictutor6domain4gameNtB4_4Game9play_lands_0B8_
FNDA:0,_RNCNvMNtNtCsfSYmbtmwwOB_12demonictutor6domain4gameNtB4_4Game12advance_turn0B8_
FNDA:0,_RNCNvMNtNtCsfSYmbtmwwOB_12demonictutor6domain4gameNtB4_4Game12advance_turns_0B8_
FNDA:0,_RNCNvMNtNtCsfSYmbtmwwOB_12demonictutor6domain4gameNtB4_4Game18deal_opening_hands0B8_
FNDA:0,_RNCNvMNtNtCsfSYmbtmwwOB_12demonictutor6domain4gameNtB4_4Game18deal_opening_handss0_0B8_
FNDA:0,_RNCNvMNtNtCsfSYmbtmwwOB_12demonictutor6domain4gameNtB4_4Game18deal_opening_handss1_0B8_
FNDA:0,_RNCNvMNtNtCsfSYmbtmwwOB_12demonictutor6domain4gameNtB4_4Game18deal_opening_handss2_0B8_
FNDA:0,_RNCNvMNtNtCsfSYmbtmwwOB_12demonictutor6domain4gameNtB4_4Game18deal_opening_handss3_0B8_
FNDA:0,_RNCNvMNtNtCsfSYmbtmwwOB_12demonictutor6domain4gameNtB4_4Game18deal_opening_handss_0B8_
FNDA:0,_RNCNvMNtNtCsfSYmbtmwwOB_12demonictutor6domain4gameNtB4_4Game5start0B8_
FNDA:0,_RNCNvMNtNtCsfSYmbtmwwOB_12demonictutor6domain4gameNtB4_4Game8mulligan0B8_
FNDA:0,_RNCNvMNtNtCsfSYmbtmwwOB_12demonictutor6domain4gameNtB4_4Game8mulligans0_0B8_
FNDA:0,_RNCNvMNtNtCsfSYmbtmwwOB_12demonictutor6domain4gameNtB4_4Game8mulligans_0B8_
FNDA:0,_RNCNvMNtNtCsfSYmbtmwwOB_12demonictutor6domain4gameNtB4_4Game9draw_card0B8_
FNDA:0,_RNCNvMNtNtCsfSYmbtmwwOB_12demonictutor6domain4gameNtB4_4Game9draw_cards0_0B8_
FNDA:0,_RNCNvMNtNtCsfSYmbtmwwOB_12demonictutor6domain4gameNtB4_4Game9draw_cards1_0B8_
FNDA:0,_RNCNvMNtNtCsfSYmbtmwwOB_12demonictutor6domain4gameNtB4_4Game9draw_cards_0B8_
FNDA:0,_RNCNvMNtNtCsfSYmbtmwwOB_12demonictutor6domain4gameNtB4_4Game9play_land0B8_
FNDA:0,_RNCNvMNtNtCsfSYmbtmwwOB_12demonictutor6domain4gameNtB4_4Game9play_lands0_0B8_
FNDA:0,_RNCNvMNtNtCsfSYmbtmwwOB_12demonictutor6domain4gameNtB4_4Game9play_lands_0B8_
FNDA:0,_RNvMNtNtCsfSYmbtmwwOB_12demonictutor6domain4gameNtB2_4Game12advance_turn
FNDA:0,_RNvMNtNtCsfSYmbtmwwOB_12demonictutor6domain4gameNtB2_4Game13active_player
FNDA:0,_RNvMNtNtCsfSYmbtmwwOB_12demonictutor6domain4gameNtB2_4Game18deal_opening_hands
FNDA:0,_RNvMNtNtCsfSYmbtmwwOB_12demonictutor6domain4gameNtB2_4Game2id
FNDA:0,_RNvMNtNtCsfSYmbtmwwOB_12demonictutor6domain4gameNtB2_4Game5phase
FNDA:0,_RNvMNtNtCsfSYmbtmwwOB_12demonictutor6domain4gameNtB2_4Game5start
FNDA:0,_RNvMNtNtCsfSYmbtmwwOB_12demonictutor6domain4gameNtB2_4Game7players
FNDA:0,_RNvMNtNtCsfSYmbtmwwOB_12demonictutor6domain4gameNtB2_4Game8mulligan
FNDA:0,_RNvMNtNtCsfSYmbtmwwOB_12demonictutor6domain4gameNtB2_4Game9draw_card
FNDA:0,_RNvMNtNtCsfSYmbtmwwOB_12demonictutor6domain4gameNtB2_4Game9play_land
FNDA:0,_RNvMNtNtNtCsfSYmbtmwwOB_12demonictutor6domain4game6playerNtB2_6Player11battlefield
FNDA:0,_RNvMNtNtNtCsfSYmbtmwwOB_12demonictutor6domain4game6playerNtB2_6Player11library_mut
FNDA:0,_RNvMNtNtNtCsfSYmbtmwwOB_12demonictutor6domain4game6playerNtB2_6Player13mulligan_used
FNDA:0,_RNvMNtNtNtCsfSYmbtmwwOB_12demonictutor6domain4game6playerNtB2_6Player15battlefield_mut
FNDA:0,_RNvMNtNtNtCsfSYmbtmwwOB_12demonictutor6domain4game6playerNtB2_6Player17mulligan_used_mut
FNDA:0,_RNvMNtNtNtCsfSYmbtmwwOB_12demonictutor6domain4game6playerNtB2_6Player22lands_played_this_turn
FNDA:0,_RNvMNtNtNtCsfSYmbtmwwOB_12demonictutor6domain4game6playerNtB2_6Player26lands_played_this_turn_mut
FNDA:0,_RNvMNtNtNtCsfSYmbtmwwOB_12demonictutor6domain4game6playerNtB2_6Player2id
FNDA:0,_RNvMNtNtNtCsfSYmbtmwwOB_12demonictutor6domain4game6playerNtB2_6Player3new
FNDA:0,_RNvMNtNtNtCsfSYmbtmwwOB_12demonictutor6domain4game6playerNtB2_6Player4hand
FNDA:0,_RNvMNtNtNtCsfSYmbtmwwOB_12demonictutor6domain4game6playerNtB2_6Player7deck_id
FNDA:0,_RNvMNtNtNtCsfSYmbtmwwOB_12demonictutor6domain4game6playerNtB2_6Player7library
FNDA:0,_RNvMNtNtNtCsfSYmbtmwwOB_12demonictutor6domain4game6playerNtB2_6Player8hand_mut
FNF:42
FNH:33
DA:34,51
DA:35,51
DA:36,51
DA:37,51
DA:38,51
DA:39,51
DA:40,51
DA:41,51
DA:42,51
DA:43,51
DA:44,51
DA:47,187
DA:48,187
DA:49,187
DA:52,0
DA:53,0
DA:54,0
DA:57,8
DA:58,8
DA:59,8
DA:62,7
DA:63,7
DA:64,7
DA:67,1
DA:68,1
DA:69,1
DA:72,13
DA:73,13
DA:74,13
DA:76,50
DA:77,50
DA:78,50
DA:80,56
DA:81,56
DA:82,56
DA:84,6
DA:85,6
DA:86,6
DA:88,42
DA:89,42
DA:90,42
DA:93,4
DA:94,4
DA:95,4
DA:97,2
DA:98,2
DA:99,2
DA:115,76
DA:116,76
DA:117,76
DA:120,2
DA:121,2
DA:122,2
DA:125,6
DA:126,6
DA:127,6
DA:130,12
DA:131,12
DA:132,12
DA:146,28
DA:147,28
DA:149,28
DA:150,1
DA:151,1
DA:152,1
DA:153,27
DA:155,27
DA:156,1
DA:157,1
DA:158,1
DA:159,26
DA:161,26
DA:162,26
DA:163,26
DA:165,52
DA:166,52
DA:167,1
DA:168,51
DA:169,51
DA:170,51
DA:173,25
DA:175,25
DA:176,0
DA:177,0
DA:178,0
DA:179,0
DA:181,25
DA:182,25
DA:183,25
DA:184,25
DA:185,25
DA:186,25
DA:188,25
DA:189,28
DA:202,21
DA:203,21
DA:204,21
DA:205,21
DA:206,21
DA:208,40
DA:209,59
DA:210,40
DA:211,0
DA:212,40
DA:215,40
DA:216,40
DA:217,1
DA:218,1
DA:219,1
DA:220,1
DA:221,1
DA:222,39
DA:225,20
DA:227,39
DA:228,39
DA:229,39
DA:230,39
DA:231,58
DA:232,39
DA:233,0
DA:234,0
DA:236,39
DA:238,39
DA:239,39
DA:240,39
DA:241,39
DA:242,39
DA:243,273
DA:244,273
DA:245,273
DA:246,273
DA:247,273
DA:249,273
DA:250,39
DA:252,39
DA:253,39
DA:254,39
DA:255,39
DA:256,39
DA:257,63
DA:258,63
DA:259,63
DA:263,63
DA:264,63
DA:266,63
DA:267,39
DA:269,39
DA:270,39
DA:271,39
DA:273,39
DA:274,39
DA:275,39
DA:276,273
DA:280,20
DA:281,21
DA:292,5
DA:293,5
DA:294,1
DA:295,4
DA:297,4
DA:298,4
DA:299,4
DA:300,4
DA:301,4
DA:303,4
DA:305,4
DA:306,1
DA:307,1
DA:308,1
DA:309,3
DA:311,3
DA:312,3
DA:313,1
DA:314,1
DA:315,1
DA:316,1
DA:317,1
DA:318,2
DA:320,2
DA:321,2
DA:322,2
DA:323,2
DA:325,2
DA:326,0
DA:327,0
DA:328,0
DA:329,0
DA:330,0
DA:331,0
DA:333,2
DA:334,2
DA:336,2
DA:337,5
DA:350,11
DA:351,11
DA:352,1
DA:353,1
DA:354,1
DA:355,1
DA:356,10
DA:358,10
DA:359,0
DA:360,10
DA:362,10
DA:363,10
DA:364,10
DA:365,19
DA:366,10
DA:368,10
DA:370,10
DA:371,1
DA:372,1
DA:373,1
DA:374,9
DA:376,9
DA:378,7
DA:379,9
DA:380,9
DA:381,9
DA:382,9
DA:383,2
DA:384,2
DA:385,2
DA:387,7
DA:388,1
DA:389,6
DA:391,6
DA:392,6
DA:394,6
DA:395,11
DA:402,18
DA:403,18
DA:404,18
DA:405,18
DA:406,20
DA:407,18
DA:408,0
DA:409,0
DA:410,18
DA:411,18
DA:413,18
DA:414,18
DA:416,36
DA:417,36
DA:418,36
DA:420,18
DA:421,18
DA:436,6
DA:437,6
DA:438,1
DA:439,1
DA:440,1
DA:441,1
DA:442,5
DA:444,5
DA:445,0
DA:446,0
DA:447,0
DA:448,5
DA:450,5
DA:451,5
DA:452,5
DA:453,9
DA:454,5
DA:456,5
DA:458,4
DA:459,5
DA:460,5
DA:461,5
DA:462,5
DA:463,1
DA:464,1
DA:466,1
DA:468,4
DA:469,0
DA:470,0
DA:471,0
DA:472,0
DA:473,4
DA:475,4
DA:477,4
DA:478,6
BRF:0
BRH:0
LF:304
LH:267
end_of_record
SF:/Users/adrianramos/Repos/demonictutor/src/domain/ids.rs
FN:5,_RINvMNtNtCs44BQeM2UY80_12demonictutor6domain3idsNtB3_6GameId3newReECsaugSN2uZP1X_12advance_turn
FN:26,_RINvMs1_NtNtCs44BQeM2UY80_12demonictutor6domain3idsNtB6_8PlayerId3newReECsaugSN2uZP1X_12advance_turn
FN:47,_RINvMs4_NtNtCs44BQeM2UY80_12demonictutor6domain3idsNtB6_6DeckId3newReECsaugSN2uZP1X_12advance_turn
FN:62,_RINvMs6_NtNtCs44BQeM2UY80_12demonictutor6domain3idsNtB6_14CardInstanceId3newReECsaugSN2uZP1X_12advance_turn
FN:77,_RINvMs8_NtNtCs44BQeM2UY80_12demonictutor6domain3idsNtB6_16CardDefinitionId3newNtNtCshKxmKasTqcA_5alloc6string6StringECsaugSN2uZP1X_12advance_turn
FN:62,_RINvMs6_NtNtCs44BQeM2UY80_12demonictutor6domain3idsNtB6_14CardInstanceId3newNtNtCshKxmKasTqcA_5alloc6string6StringEBa_
FN:17,_RNvXs0_NtNtCs44BQeM2UY80_12demonictutor6domain3idsNtB5_6GameIdNtNtCsewIAYgoiDvj_4core3fmt7Display3fmt
FN:32,_RNvXs2_NtNtCs44BQeM2UY80_12demonictutor6domain3idsNtB5_8PlayerIdINtNtCsewIAYgoiDvj_4core7convert4FromNtNtCshKxmKasTqcA_5alloc6string6StringE4from
FN:38,_RNvXs3_NtNtCs44BQeM2UY80_12demonictutor6domain3idsNtB5_8PlayerIdNtNtCsewIAYgoiDvj_4core3fmt7Display3fmt
FN:53,_RNvXs5_NtNtCs44BQeM2UY80_12demonictutor6domain3idsNtB5_6DeckIdINtNtCsewIAYgoiDvj_4core7convert4FromNtNtCshKxmKasTqcA_5alloc6string6StringE4from
FN:68,_RNvXs7_NtNtCs44BQeM2UY80_12demonictutor6domain3idsNtB5_14CardInstanceIdNtNtCsewIAYgoiDvj_4core3fmt7Display3fmt
FN:83,_RNvXs9_NtNtCs44BQeM2UY80_12demonictutor6domain3idsNtB5_16CardDefinitionIdNtNtCsewIAYgoiDvj_4core3fmt7Display3fmt
FN:11,_RNvXs_NtNtCs44BQeM2UY80_12demonictutor6domain3idsNtB4_6GameIdINtNtCsewIAYgoiDvj_4core7convert4FromNtNtCshKxmKasTqcA_5alloc6string6StringE4from
FN:5,_RINvMNtNtCs44BQeM2UY80_12demonictutor6domain3idsNtB3_6GameId3newReECsQDGLTnpKR1_18deal_opening_hands
FN:26,_RINvMs1_NtNtCs44BQeM2UY80_12demonictutor6domain3idsNtB6_8PlayerId3newReECsQDGLTnpKR1_18deal_opening_hands
FN:47,_RINvMs4_NtNtCs44BQeM2UY80_12demonictutor6domain3idsNtB6_6DeckId3newReECsQDGLTnpKR1_18deal_opening_hands
FN:77,_RINvMs8_NtNtCs44BQeM2UY80_12demonictutor6domain3idsNtB6_16CardDefinitionId3newNtNtCshKxmKasTqcA_5alloc6string6StringECsQDGLTnpKR1_18deal_opening_hands
FN:5,_RINvMNtNtCsfSYmbtmwwOB_12demonictutor6domain3idsNtB3_6GameId3newpEB7_
FN:26,_RINvMs1_NtNtCsfSYmbtmwwOB_12demonictutor6domain3idsNtB6_8PlayerId3newpEBa_
FN:47,_RINvMs4_NtNtCsfSYmbtmwwOB_12demonictutor6domain3idsNtB6_6DeckId3newpEBa_
FN:62,_RINvMs6_NtNtCsfSYmbtmwwOB_12demonictutor6domain3idsNtB6_14CardInstanceId3newpEBa_
FN:77,_RINvMs8_NtNtCsfSYmbtmwwOB_12demonictutor6domain3idsNtB6_16CardDefinitionId3newpEBa_
FN:17,_RNvXs0_NtNtCsfSYmbtmwwOB_12demonictutor6domain3idsNtB5_6GameIdNtNtCsewIAYgoiDvj_4core3fmt7Display3fmt
FN:32,_RNvXs2_NtNtCsfSYmbtmwwOB_12demonictutor6domain3idsNtB5_8PlayerIdINtNtCsewIAYgoiDvj_4core7convert4FromNtNtCshKxmKasTqcA_5alloc6string6StringE4from
FN:38,_RNvXs3_NtNtCsfSYmbtmwwOB_12demonictutor6domain3idsNtB5_8PlayerIdNtNtCsewIAYgoiDvj_4core3fmt7Display3fmt
FN:53,_RNvXs5_NtNtCsfSYmbtmwwOB_12demonictutor6domain3idsNtB5_6DeckIdINtNtCsewIAYgoiDvj_4core7convert4FromNtNtCshKxmKasTqcA_5alloc6string6StringE4from
FN:68,_RNvXs7_NtNtCsfSYmbtmwwOB_12demonictutor6domain3idsNtB5_14CardInstanceIdNtNtCsewIAYgoiDvj_4core3fmt7Display3fmt
FN:83,_RNvXs9_NtNtCsfSYmbtmwwOB_12demonictutor6domain3idsNtB5_16CardDefinitionIdNtNtCsewIAYgoiDvj_4core3fmt7Display3fmt
FN:11,_RNvXs_NtNtCsfSYmbtmwwOB_12demonictutor6domain3idsNtB4_6GameIdINtNtCsewIAYgoiDvj_4core7convert4FromNtNtCshKxmKasTqcA_5alloc6string6StringE4from
FN:5,_RINvMNtNtCs44BQeM2UY80_12demonictutor6domain3idsNtB3_6GameId3newReECsqDz8nazDVt_9draw_card
FN:26,_RINvMs1_NtNtCs44BQeM2UY80_12demonictutor6domain3idsNtB6_8PlayerId3newReECsqDz8nazDVt_9draw_card
FN:47,_RINvMs4_NtNtCs44BQeM2UY80_12demonictutor6domain3idsNtB6_6DeckId3newReECsqDz8nazDVt_9draw_card
FN:62,_RINvMs6_NtNtCs44BQeM2UY80_12demonictutor6domain3idsNtB6_14CardInstanceId3newReECsqDz8nazDVt_9draw_card
FN:77,_RINvMs8_NtNtCs44BQeM2UY80_12demonictutor6domain3idsNtB6_16CardDefinitionId3newNtNtCshKxmKasTqcA_5alloc6string6StringECsqDz8nazDVt_9draw_card
FN:5,_RINvMNtNtCs44BQeM2UY80_12demonictutor6domain3idsNtB3_6GameId3newReECs9aWl9JL9U0h_14infrastructure
FN:26,_RINvMs1_NtNtCs44BQeM2UY80_12demonictutor6domain3idsNtB6_8PlayerId3newReECs9aWl9JL9U0h_14infrastructure
FN:62,_RINvMs6_NtNtCs44BQeM2UY80_12demonictutor6domain3idsNtB6_14CardInstanceId3newReECs9aWl9JL9U0h_14infrastructure
FN:5,_RINvMNtNtCs44BQeM2UY80_12demonictutor6domain3idsNtB3_6GameId3newReECskALQQH4Uu52_8mulligan
FN:26,_RINvMs1_NtNtCs44BQeM2UY80_12demonictutor6domain3idsNtB6_8PlayerId3newReECskALQQH4Uu52_8mulligan
FN:47,_RINvMs4_NtNtCs44BQeM2UY80_12demonictutor6domain3idsNtB6_6DeckId3newReECskALQQH4Uu52_8mulligan
FN:77,_RINvMs8_NtNtCs44BQeM2UY80_12demonictutor6domain3idsNtB6_16CardDefinitionId3newNtNtCshKxmKasTqcA_5alloc6string6StringECskALQQH4Uu52_8mulligan
FN:5,_RINvMNtNtCs44BQeM2UY80_12demonictutor6domain3idsNtB3_6GameId3newReECs6CsADadE681_9play_land
FN:26,_RINvMs1_NtNtCs44BQeM2UY80_12demonictutor6domain3idsNtB6_8PlayerId3newReECs6CsADadE681_9play_land
FN:47,_RINvMs4_NtNtCs44BQeM2UY80_12demonictutor6domain3idsNtB6_6DeckId3newReECs6CsADadE681_9play_land
FN:62,_RINvMs6_NtNtCs44BQeM2UY80_12demonictutor6domain3idsNtB6_14CardInstanceId3newReECs6CsADadE681_9play_land
FN:77,_RINvMs8_NtNtCs44BQeM2UY80_12demonictutor6domain3idsNtB6_16CardDefinitionId3newNtNtCshKxmKasTqcA_5alloc6string6StringECs6CsADadE681_9play_land
FN:5,_RINvMNtNtCs44BQeM2UY80_12demonictutor6domain3idsNtB3_6GameId3newReECseXc8uLSNgsW_10start_game
FN:26,_RINvMs1_NtNtCs44BQeM2UY80_12demonictutor6domain3idsNtB6_8PlayerId3newReECseXc8uLSNgsW_10start_game
FN:47,_RINvMs4_NtNtCs44BQeM2UY80_12demonictutor6domain3idsNtB6_6DeckId3newReECseXc8uLSNgsW_10start_game
FNDA:4,_RINvMNtNtCs44BQeM2UY80_12demonictutor6domain3idsNtB3_6GameId3newReECsaugSN2uZP1X_12advance_turn
FNDA:15,_RINvMs1_NtNtCs44BQeM2UY80_12demonictutor6domain3idsNtB6_8PlayerId3newReECsaugSN2uZP1X_12advance_turn
FNDA:8,_RINvMs4_NtNtCs44BQeM2UY80_12demonictutor6domain3idsNtB6_6DeckId3newReECsaugSN2uZP1X_12advance_turn
FNDA:3,_RINvMs6_NtNtCs44BQeM2UY80_12demonictutor6domain3idsNtB6_14CardInstanceId3newReECsaugSN2uZP1X_12advance_turn
FNDA:28,_RINvMs8_NtNtCs44BQeM2UY80_12demonictutor6domain3idsNtB6_16CardDefinitionId3newNtNtCshKxmKasTqcA_5alloc6string6StringECsaugSN2uZP1X_12advance_turn
FNDA:336,_RINvMs6_NtNtCs44BQeM2UY80_12demonictutor6domain3idsNtB6_14CardInstanceId3newNtNtCshKxmKasTqcA_5alloc6string6StringEBa_
FNDA:2,_RNvXs0_NtNtCs44BQeM2UY80_12demonictutor6domain3idsNtB5_6GameIdNtNtCsewIAYgoiDvj_4core3fmt7Display3fmt
FNDA:0,_RNvXs2_NtNtCs44BQeM2UY80_12demonictutor6domain3idsNtB5_8PlayerIdINtNtCsewIAYgoiDvj_4core7convert4FromNtNtCshKxmKasTqcA_5alloc6string6StringE4from
FNDA:9,_RNvXs3_NtNtCs44BQeM2UY80_12demonictutor6domain3idsNtB5_8PlayerIdNtNtCsewIAYgoiDvj_4core3fmt7Display3fmt
FNDA:0,_RNvXs5_NtNtCs44BQeM2UY80_12demonictutor6domain3idsNtB5_6DeckIdINtNtCsewIAYgoiDvj_4core7convert4FromNtNtCshKxmKasTqcA_5alloc6string6StringE4from
FNDA:1,_RNvXs7_NtNtCs44BQeM2UY80_12demonictutor6domain3idsNtB5_14CardInstanceIdNtNtCsewIAYgoiDvj_4core3fmt7Display3fmt
FNDA:0,_RNvXs9_NtNtCs44BQeM2UY80_12demonictutor6domain3idsNtB5_16CardDefinitionIdNtNtCsewIAYgoiDvj_4core3fmt7Display3fmt
FNDA:0,_RNvXs_NtNtCs44BQeM2UY80_12demonictutor6domain3idsNtB4_6GameIdINtNtCsewIAYgoiDvj_4core7convert4FromNtNtCshKxmKasTqcA_5alloc6string6StringE4from
FNDA:4,_RINvMNtNtCs44BQeM2UY80_12demonictutor6domain3idsNtB3_6GameId3newReECsQDGLTnpKR1_18deal_opening_hands
FNDA:14,_RINvMs1_NtNtCs44BQeM2UY80_12demonictutor6domain3idsNtB6_8PlayerId3newReECsQDGLTnpKR1_18deal_opening_hands
FNDA:8,_RINvMs4_NtNtCs44BQeM2UY80_12demonictutor6domain3idsNtB6_6DeckId3newReECsQDGLTnpKR1_18deal_opening_hands
FNDA:41,_RINvMs8_NtNtCs44BQeM2UY80_12demonictutor6domain3idsNtB6_16CardDefinitionId3newNtNtCshKxmKasTqcA_5alloc6string6StringECsQDGLTnpKR1_18deal_opening_hands
FNDA:0,_RINvMNtNtCsfSYmbtmwwOB_12demonictutor6domain3idsNtB3_6GameId3newpEB7_
FNDA:0,_RINvMs1_NtNtCsfSYmbtmwwOB_12demonictutor6domain3idsNtB6_8PlayerId3newpEBa_
FNDA:0,_RINvMs4_NtNtCsfSYmbtmwwOB_12demonictutor6domain3idsNtB6_6DeckId3newpEBa_
FNDA:0,_RINvMs6_NtNtCsfSYmbtmwwOB_12demonictutor6domain3idsNtB6_14CardInstanceId3newpEBa_
FNDA:0,_RINvMs8_NtNtCsfSYmbtmwwOB_12demonictutor6domain3idsNtB6_16CardDefinitionId3newpEBa_
FNDA:0,_RNvXs0_NtNtCsfSYmbtmwwOB_12demonictutor6domain3idsNtB5_6GameIdNtNtCsewIAYgoiDvj_4core3fmt7Display3fmt
FNDA:0,_RNvXs2_NtNtCsfSYmbtmwwOB_12demonictutor6domain3idsNtB5_8PlayerIdINtNtCsewIAYgoiDvj_4core7convert4FromNtNtCshKxmKasTqcA_5alloc6string6StringE4from
FNDA:0,_RNvXs3_NtNtCsfSYmbtmwwOB_12demonictutor6domain3idsNtB5_8PlayerIdNtNtCsewIAYgoiDvj_4core3fmt7Display3fmt
FNDA:0,_RNvXs5_NtNtCsfSYmbtmwwOB_12demonictutor6domain3idsNtB5_6DeckIdINtNtCsewIAYgoiDvj_4core7convert4FromNtNtCshKxmKasTqcA_5alloc6string6StringE4from
FNDA:0,_RNvXs7_NtNtCsfSYmbtmwwOB_12demonictutor6domain3idsNtB5_14CardInstanceIdNtNtCsewIAYgoiDvj_4core3fmt7Display3fmt
FNDA:0,_RNvXs9_NtNtCsfSYmbtmwwOB_12demonictutor6domain3idsNtB5_16CardDefinitionIdNtNtCsewIAYgoiDvj_4core3fmt7Display3fmt
FNDA:0,_RNvXs_NtNtCsfSYmbtmwwOB_12demonictutor6domain3idsNtB4_6GameIdINtNtCsewIAYgoiDvj_4core7convert4FromNtNtCshKxmKasTqcA_5alloc6string6StringE4from
FNDA:6,_RINvMNtNtCs44BQeM2UY80_12demonictutor6domain3idsNtB3_6GameId3newReECsqDz8nazDVt_9draw_card
FNDA:31,_RINvMs1_NtNtCs44BQeM2UY80_12demonictutor6domain3idsNtB6_8PlayerId3newReECsqDz8nazDVt_9draw_card
FNDA:12,_RINvMs4_NtNtCs44BQeM2UY80_12demonictutor6domain3idsNtB6_6DeckId3newReECsqDz8nazDVt_9draw_card
FNDA:1,_RINvMs6_NtNtCs44BQeM2UY80_12demonictutor6domain3idsNtB6_14CardInstanceId3newReECsqDz8nazDVt_9draw_card
FNDA:105,_RINvMs8_NtNtCs44BQeM2UY80_12demonictutor6domain3idsNtB6_16CardDefinitionId3newNtNtCshKxmKasTqcA_5alloc6string6StringECsqDz8nazDVt_9draw_card
FNDA:12,_RINvMNtNtCs44BQeM2UY80_12demonictutor6domain3idsNtB3_6GameId3newReECs9aWl9JL9U0h_14infrastructure
FNDA:17,_RINvMs1_NtNtCs44BQeM2UY80_12demonictutor6domain3idsNtB6_8PlayerId3newReECs9aWl9JL9U0h_14infrastructure
FNDA:2,_RINvMs6_NtNtCs44BQeM2UY80_12demonictutor6domain3idsNtB6_14CardInstanceId3newReECs9aWl9JL9U0h_14infrastructure
FNDA:4,_RINvMNtNtCs44BQeM2UY80_12demonictutor6domain3idsNtB3_6GameId3newReECskALQQH4Uu52_8mulligan
FNDA:20,_RINvMs1_NtNtCs44BQeM2UY80_12demonictutor6domain3idsNtB6_8PlayerId3newReECskALQQH4Uu52_8mulligan
FNDA:8,_RINvMs4_NtNtCs44BQeM2UY80_12demonictutor6domain3idsNtB6_6DeckId3newReECskALQQH4Uu52_8mulligan
FNDA:84,_RINvMs8_NtNtCs44BQeM2UY80_12demonictutor6domain3idsNtB6_16CardDefinitionId3newNtNtCshKxmKasTqcA_5alloc6string6StringECskALQQH4Uu52_8mulligan
FNDA:6,_RINvMNtNtCs44BQeM2UY80_12demonictutor6domain3idsNtB3_6GameId3newReECs6CsADadE681_9play_land
FNDA:31,_RINvMs1_NtNtCs44BQeM2UY80_12demonictutor6domain3idsNtB6_8PlayerId3newReECs6CsADadE681_9play_land
FNDA:12,_RINvMs4_NtNtCs44BQeM2UY80_12demonictutor6domain3idsNtB6_6DeckId3newReECs6CsADadE681_9play_land
FNDA:9,_RINvMs6_NtNtCs44BQeM2UY80_12demonictutor6domain3idsNtB6_14CardInstanceId3newReECs6CsADadE681_9play_land
FNDA:84,_RINvMs8_NtNtCs44BQeM2UY80_12demonictutor6domain3idsNtB6_16CardDefinitionId3newNtNtCshKxmKasTqcA_5alloc6string6StringECs6CsADadE681_9play_land
FNDA:4,_RINvMNtNtCs44BQeM2UY80_12demonictutor6domain3idsNtB3_6GameId3newReECseXc8uLSNgsW_10start_game
FNDA:9,_RINvMs1_NtNtCs44BQeM2UY80_12demonictutor6domain3idsNtB6_8PlayerId3newReECseXc8uLSNgsW_10start_game
FNDA:8,_RINvMs4_NtNtCs44BQeM2UY80_12demonictutor6domain3idsNtB6_6DeckId3newReECseXc8uLSNgsW_10start_game
FNF:12
FNH:8
DA:5,40
DA:6,40
DA:7,40
DA:11,0
DA:12,0
DA:13,0
DA:17,2
DA:18,2
DA:19,2
DA:26,137
DA:27,137
DA:28,137
DA:32,0
DA:33,0
DA:34,0
DA:38,9
DA:39,9
DA:40,9
DA:47,56
DA:48,56
DA:49,56
DA:53,0
DA:54,0
DA:55,0
DA:62,351
DA:63,351
DA:64,351
DA:68,1
DA:69,1
DA:70,1
DA:77,342
DA:78,342
DA:79,342
DA:83,0
DA:84,0
DA:85,0
BRF:0
BRH:0
LF:36
LH:24
end_of_record
SF:/Users/adrianramos/Repos/demonictutor/src/domain/zones.rs
FN:65,_RNCNvMs_NtNtCs44BQeM2UY80_12demonictutor6domain5zonesNtB6_4Hand6remove0Ba_
FN:66,_RNCNvMs_NtNtCs44BQeM2UY80_12demonictutor6domain5zonesNtB6_4Hand6removes_0Ba_
FN:24,_RNvMNtNtCs44BQeM2UY80_12demonictutor6domain5zonesNtB2_7Library3len
FN:11,_RNvMNtNtCs44BQeM2UY80_12demonictutor6domain5zonesNtB2_7Library3new
FN:15,_RNvMNtNtCs44BQeM2UY80_12demonictutor6domain5zonesNtB2_7Library4draw
FN:33,_RNvMNtNtCs44BQeM2UY80_12demonictutor6domain5zonesNtB2_7Library7receive
FN:37,_RNvMNtNtCs44BQeM2UY80_12demonictutor6domain5zonesNtB2_7Library7shuffle
FN:29,_RNvMNtNtCs44BQeM2UY80_12demonictutor6domain5zonesNtB2_7Library8is_empty
FN:79,_RNvMs0_NtNtCs44BQeM2UY80_12demonictutor6domain5zonesNtB5_11Battlefield3add
FN:75,_RNvMs0_NtNtCs44BQeM2UY80_12demonictutor6domain5zonesNtB5_11Battlefield3new
FN:84,_RNvMs0_NtNtCs44BQeM2UY80_12demonictutor6domain5zonesNtB5_11Battlefield5cards
FN:48,_RNvMs_NtNtCs44BQeM2UY80_12demonictutor6domain5zonesNtB4_4Hand3new
FN:57,_RNvMs_NtNtCs44BQeM2UY80_12demonictutor6domain5zonesNtB4_4Hand5cards
FN:62,_RNvMs_NtNtCs44BQeM2UY80_12demonictutor6domain5zonesNtB4_4Hand6remove
FN:52,_RNvMs_NtNtCs44BQeM2UY80_12demonictutor6domain5zonesNtB4_4Hand7receive
FN:65,_RNCNvMs_NtNtCsfSYmbtmwwOB_12demonictutor6domain5zonesNtB6_4Hand6remove0Ba_
FN:66,_RNCNvMs_NtNtCsfSYmbtmwwOB_12demonictutor6domain5zonesNtB6_4Hand6removes_0Ba_
FN:24,_RNvMNtNtCsfSYmbtmwwOB_12demonictutor6domain5zonesNtB2_7Library3len
FN:11,_RNvMNtNtCsfSYmbtmwwOB_12demonictutor6domain5zonesNtB2_7Library3new
FN:15,_RNvMNtNtCsfSYmbtmwwOB_12demonictutor6domain5zonesNtB2_7Library4draw
FN:33,_RNvMNtNtCsfSYmbtmwwOB_12demonictutor6domain5zonesNtB2_7Library7receive
FN:37,_RNvMNtNtCsfSYmbtmwwOB_12demonictutor6domain5zonesNtB2_7Library7shuffle
FN:29,_RNvMNtNtCsfSYmbtmwwOB_12demonictutor6domain5zonesNtB2_7Library8is_empty
FN:79,_RNvMs0_NtNtCsfSYmbtmwwOB_12demonictutor6domain5zonesNtB5_11Battlefield3add
FN:75,_RNvMs0_NtNtCsfSYmbtmwwOB_12demonictutor6domain5zonesNtB5_11Battlefield3new
FN:84,_RNvMs0_NtNtCsfSYmbtmwwOB_12demonictutor6domain5zonesNtB5_11Battlefield5cards
FN:48,_RNvMs_NtNtCsfSYmbtmwwOB_12demonictutor6domain5zonesNtB4_4Hand3new
FN:57,_RNvMs_NtNtCsfSYmbtmwwOB_12demonictutor6domain5zonesNtB4_4Hand5cards
FN:62,_RNvMs_NtNtCsfSYmbtmwwOB_12demonictutor6domain5zonesNtB4_4Hand6remove
FN:52,_RNvMs_NtNtCsfSYmbtmwwOB_12demonictutor6domain5zonesNtB4_4Hand7receive
FNDA:22,_RNCNvMs_NtNtCs44BQeM2UY80_12demonictutor6domain5zonesNtB6_4Hand6remove0Ba_
FNDA:7,_RNCNvMs_NtNtCs44BQeM2UY80_12demonictutor6domain5zonesNtB6_4Hand6removes_0Ba_
FNDA:7,_RNvMNtNtCs44BQeM2UY80_12demonictutor6domain5zonesNtB2_7Library3len
FNDA:90,_RNvMNtNtCs44BQeM2UY80_12demonictutor6domain5zonesNtB2_7Library3new
FNDA:7,_RNvMNtNtCs44BQeM2UY80_12demonictutor6domain5zonesNtB2_7Library4draw
FNDA:2,_RNvMNtNtCs44BQeM2UY80_12demonictutor6domain5zonesNtB2_7Library7receive
FNDA:2,_RNvMNtNtCs44BQeM2UY80_12demonictutor6domain5zonesNtB2_7Library7shuffle
FNDA:0,_RNvMNtNtCs44BQeM2UY80_12demonictutor6domain5zonesNtB2_7Library8is_empty
FNDA:6,_RNvMs0_NtNtCs44BQeM2UY80_12demonictutor6domain5zonesNtB5_11Battlefield3add
FNDA:51,_RNvMs0_NtNtCs44BQeM2UY80_12demonictutor6domain5zonesNtB5_11Battlefield3new
FNDA:1,_RNvMs0_NtNtCs44BQeM2UY80_12demonictutor6domain5zonesNtB5_11Battlefield5cards
FNDA:51,_RNvMs_NtNtCs44BQeM2UY80_12demonictutor6domain5zonesNtB4_4Hand3new
FNDA:8,_RNvMs_NtNtCs44BQeM2UY80_12demonictutor6domain5zonesNtB4_4Hand5cards
FNDA:9,_RNvMs_NtNtCs44BQeM2UY80_12demonictutor6domain5zonesNtB4_4Hand6remove
FNDA:47,_RNvMs_NtNtCs44BQeM2UY80_12demonictutor6domain5zonesNtB4_4Hand7receive
FNDA:0,_RNCNvMs_NtNtCsfSYmbtmwwOB_12demonictutor6domain5zonesNtB6_4Hand6remove0Ba_
FNDA:0,_RNCNvMs_NtNtCsfSYmbtmwwOB_12demonictutor6domain5zonesNtB6_4Hand6removes_0Ba_
FNDA:0,_RNvMNtNtCsfSYmbtmwwOB_12demonictutor6domain5zonesNtB2_7Library3len
FNDA:0,_RNvMNtNtCsfSYmbtmwwOB_12demonictutor6domain5zonesNtB2_7Library3new
FNDA:0,_RNvMNtNtCsfSYmbtmwwOB_12demonictutor6domain5zonesNtB2_7Library4draw
FNDA:0,_RNvMNtNtCsfSYmbtmwwOB_12demonictutor6domain5zonesNtB2_7Library7receive
FNDA:0,_RNvMNtNtCsfSYmbtmwwOB_12demonictutor6domain5zonesNtB2_7Library7shuffle
FNDA:0,_RNvMNtNtCsfSYmbtmwwOB_12demonictutor6domain5zonesNtB2_7Library8is_empty
FNDA:0,_RNvMs0_NtNtCsfSYmbtmwwOB_12demonictutor6domain5zonesNtB5_11Battlefield3add
FNDA:0,_RNvMs0_NtNtCsfSYmbtmwwOB_12demonictutor6domain5zonesNtB5_11Battlefield3new
FNDA:0,_RNvMs0_NtNtCsfSYmbtmwwOB_12demonictutor6domain5zonesNtB5_11Battlefield5cards
FNDA:0,_RNvMs_NtNtCsfSYmbtmwwOB_12demonictutor6domain5zonesNtB4_4Hand3new
FNDA:0,_RNvMs_NtNtCsfSYmbtmwwOB_12demonictutor6domain5zonesNtB4_4Hand5cards
FNDA:0,_RNvMs_NtNtCsfSYmbtmwwOB_12demonictutor6domain5zonesNtB4_4Hand6remove
FNDA:0,_RNvMs_NtNtCsfSYmbtmwwOB_12demonictutor6domain5zonesNtB4_4Hand7receive
FNF:15
FNH:14
DA:11,90
DA:12,90
DA:13,90
DA:15,7
DA:16,7
DA:17,6
DA:19,1
DA:21,7
DA:24,7
DA:25,7
DA:26,7
DA:29,0
DA:30,0
DA:31,0
DA:33,2
DA:34,2
DA:35,2
DA:37,2
DA:38,2
DA:39,2
DA:40,2
DA:48,51
DA:49,51
DA:50,51
DA:52,47
DA:53,47
DA:54,47
DA:57,8
DA:58,8
DA:59,8
DA:62,9
DA:63,9
DA:64,9
DA:65,22
DA:66,9
DA:67,9
DA:75,51
DA:76,51
DA:77,51
DA:79,6
DA:80,6
DA:81,6
DA:84,1
DA:85,1
DA:86,1
BRF:0
BRH:0
LF:47
LH:44
end_of_record
SF:/Users/adrianramos/Repos/demonictutor/src/infrastructure/event_bus.rs
FN:13,_RNvMNtNtCs44BQeM2UY80_12demonictutor14infrastructure9event_busNtB2_16InMemoryEventBus3new
FN:19,_RNvMNtNtCs44BQeM2UY80_12demonictutor14infrastructure9event_busNtB2_16InMemoryEventBus9subscribe
FN:31,_RNvXs0_NtNtCs44BQeM2UY80_12demonictutor14infrastructure9event_busNtB5_16InMemoryEventBusNtNtNtB9_11application6traits8EventBus7publish
FN:25,_RNvXs_NtNtCs44BQeM2UY80_12demonictutor14infrastructure9event_busNtB4_16InMemoryEventBusNtNtCsewIAYgoiDvj_4core7default7Default7default
FN:13,_RNvMNtNtCsfSYmbtmwwOB_12demonictutor14infrastructure9event_busNtB2_16InMemoryEventBus3new
FN:19,_RNvMNtNtCsfSYmbtmwwOB_12demonictutor14infrastructure9event_busNtB2_16InMemoryEventBus9subscribe
FN:31,_RNvXs0_NtNtCsfSYmbtmwwOB_12demonictutor14infrastructure9event_busNtB5_16InMemoryEventBusNtNtNtB9_11application6traits8EventBus7publish
FN:25,_RNvXs_NtNtCsfSYmbtmwwOB_12demonictutor14infrastructure9event_busNtB4_16InMemoryEventBusNtNtCsewIAYgoiDvj_4core7default7Default7default
FNDA:41,_RNvMNtNtCs44BQeM2UY80_12demonictutor14infrastructure9event_busNtB2_16InMemoryEventBus3new
FNDA:3,_RNvMNtNtCs44BQeM2UY80_12demonictutor14infrastructure9event_busNtB2_16InMemoryEventBus9subscribe
FNDA:97,_RNvXs0_NtNtCs44BQeM2UY80_12demonictutor14infrastructure9event_busNtB5_16InMemoryEventBusNtNtNtB9_11application6traits8EventBus7publish
FNDA:0,_RNvXs_NtNtCs44BQeM2UY80_12demonictutor14infrastructure9event_busNtB4_16InMemoryEventBusNtNtCsewIAYgoiDvj_4core7default7Default7default
FNDA:0,_RNvMNtNtCsfSYmbtmwwOB_12demonictutor14infrastructure9event_busNtB2_16InMemoryEventBus3new
FNDA:0,_RNvMNtNtCsfSYmbtmwwOB_12demonictutor14infrastructure9event_busNtB2_16InMemoryEventBus9subscribe
FNDA:0,_RNvXs0_NtNtCsfSYmbtmwwOB_12demonictutor14infrastructure9event_busNtB5_16InMemoryEventBusNtNtNtB9_11application6traits8EventBus7publish
FNDA:0,_RNvXs_NtNtCsfSYmbtmwwOB_12demonictutor14infrastructure9event_busNtB4_16InMemoryEventBusNtNtCsewIAYgoiDvj_4core7default7Default7default
FNF:4
FNH:3
DA:13,41
DA:14,41
DA:15,41
DA:16,41
DA:17,41
DA:19,3
DA:20,3
DA:21,3
DA:25,0
DA:26,0
DA:27,0
DA:31,97
DA:32,97
DA:33,3
DA:34,3
DA:35,97
BRF:0
BRH:0
LF:16
LH:13
end_of_record
SF:/Users/adrianramos/Repos/demonictutor/src/infrastructure/event_store.rs
FN:13,_RNvMNtNtCs44BQeM2UY80_12demonictutor14infrastructure11event_storeNtB2_18InMemoryEventStore3new
FN:44,_RNvXs0_NtNtCs44BQeM2UY80_12demonictutor14infrastructure11event_storeNtB5_18InMemoryEventStoreNtNtNtB9_11application6traits10EventStore10get_events
FN:27,_RNvXs0_NtNtCs44BQeM2UY80_12demonictutor14infrastructure11event_storeNtB5_18InMemoryEventStoreNtNtNtB9_11application6traits10EventStore6append
FN:21,_RNvXs_NtNtCs44BQeM2UY80_12demonictutor14infrastructure11event_storeNtB4_18InMemoryEventStoreNtNtCsewIAYgoiDvj_4core7default7Default7default
FN:48,_RNCNvXs0_NtNtCs44BQeM2UY80_12demonictutor14infrastructure11event_storeNtB7_18InMemoryEventStoreNtNtNtBb_11application6traits10EventStore10get_events0Bb_
FN:33,_RNCNvXs0_NtNtCs44BQeM2UY80_12demonictutor14infrastructure11event_storeNtB7_18InMemoryEventStoreNtNtNtBb_11application6traits10EventStore6append0Bb_
FN:48,_RNCNvXs0_NtNtCsfSYmbtmwwOB_12demonictutor14infrastructure11event_storeNtB7_18InMemoryEventStoreNtNtNtBb_11application6traits10EventStore10get_events0Bb_
FN:33,_RNCNvXs0_NtNtCsfSYmbtmwwOB_12demonictutor14infrastructure11event_storeNtB7_18InMemoryEventStoreNtNtNtBb_11application6traits10EventStore6append0Bb_
FN:13,_RNvMNtNtCsfSYmbtmwwOB_12demonictutor14infrastructure11event_storeNtB2_18InMemoryEventStore3new
FN:44,_RNvXs0_NtNtCsfSYmbtmwwOB_12demonictutor14infrastructure11event_storeNtB5_18InMemoryEventStoreNtNtNtB9_11application6traits10EventStore10get_events
FN:27,_RNvXs0_NtNtCsfSYmbtmwwOB_12demonictutor14infrastructure11event_storeNtB5_18InMemoryEventStoreNtNtNtB9_11application6traits10EventStore6append
FN:21,_RNvXs_NtNtCsfSYmbtmwwOB_12demonictutor14infrastructure11event_storeNtB4_18InMemoryEventStoreNtNtCsewIAYgoiDvj_4core7default7Default7default
FNDA:41,_RNvMNtNtCs44BQeM2UY80_12demonictutor14infrastructure11event_storeNtB2_18InMemoryEventStore3new
FNDA:3,_RNvXs0_NtNtCs44BQeM2UY80_12demonictutor14infrastructure11event_storeNtB5_18InMemoryEventStoreNtNtNtB9_11application6traits10EventStore10get_events
FNDA:78,_RNvXs0_NtNtCs44BQeM2UY80_12demonictutor14infrastructure11event_storeNtB5_18InMemoryEventStoreNtNtNtB9_11application6traits10EventStore6append
FNDA:0,_RNvXs_NtNtCs44BQeM2UY80_12demonictutor14infrastructure11event_storeNtB4_18InMemoryEventStoreNtNtCsewIAYgoiDvj_4core7default7Default7default
FNDA:0,_RNCNvXs0_NtNtCs44BQeM2UY80_12demonictutor14infrastructure11event_storeNtB7_18InMemoryEventStoreNtNtNtBb_11application6traits10EventStore10get_events0Bb_
FNDA:0,_RNCNvXs0_NtNtCs44BQeM2UY80_12demonictutor14infrastructure11event_storeNtB7_18InMemoryEventStoreNtNtNtBb_11application6traits10EventStore6append0Bb_
FNDA:0,_RNCNvXs0_NtNtCsfSYmbtmwwOB_12demonictutor14infrastructure11event_storeNtB7_18InMemoryEventStoreNtNtNtBb_11application6traits10EventStore10get_events0Bb_
FNDA:0,_RNCNvXs0_NtNtCsfSYmbtmwwOB_12demonictutor14infrastructure11event_storeNtB7_18InMemoryEventStoreNtNtNtBb_11application6traits10EventStore6append0Bb_
FNDA:0,_RNvMNtNtCsfSYmbtmwwOB_12demonictutor14infrastructure11event_storeNtB2_18InMemoryEventStore3new
FNDA:0,_RNvXs0_NtNtCsfSYmbtmwwOB_12demonictutor14infrastructure11event_storeNtB5_18InMemoryEventStoreNtNtNtB9_11application6traits10EventStore10get_events
FNDA:0,_RNvXs0_NtNtCsfSYmbtmwwOB_12demonictutor14infrastructure11event_storeNtB5_18InMemoryEventStoreNtNtNtB9_11application6traits10EventStore6append
FNDA:0,_RNvXs_NtNtCsfSYmbtmwwOB_12demonictutor14infrastructure11event_storeNtB4_18InMemoryEventStoreNtNtCsewIAYgoiDvj_4core7default7Default7default
FNF:6
FNH:3
DA:13,41
DA:14,41
DA:15,41
DA:16,41
DA:17,41
DA:21,0
DA:22,0
DA:23,0
DA:27,78
DA:28,78
DA:29,78
DA:30,78
DA:31,78
DA:33,78
DA:34,78
DA:35,78
DA:36,44
DA:37,44
DA:38,34
DA:39,34
DA:41,78
DA:42,78
DA:44,3
DA:45,3
DA:46,3
DA:47,3
DA:48,3
DA:49,3
DA:50,3
BRF:0
BRH:0
LF:31
LH:26
end_of_record
SF:/Users/adrianramos/Repos/demonictutor/src/infrastructure/projection.rs
FN:21,_RNCNvMNtNtCs44BQeM2UY80_12demonictutor14infrastructure10projectionNtB4_17GameLogProjection4logs0B8_
FN:21,_RNCNvMNtNtCsfSYmbtmwwOB_12demonictutor14infrastructure10projectionNtB4_17GameLogProjection4logs0B8_
FN:11,_RNvMNtNtCsfSYmbtmwwOB_12demonictutor14infrastructure10projectionNtB2_17GameLogProjection3new
FN:18,_RNvMNtNtCsfSYmbtmwwOB_12demonictutor14infrastructure10projectionNtB2_17GameLogProjection4logs
FN:25,_RNvMNtNtCsfSYmbtmwwOB_12demonictutor14infrastructure10projectionNtB2_17GameLogProjection6handle
FN:11,_RNvMNtNtCs44BQeM2UY80_12demonictutor14infrastructure10projectionNtB2_17GameLogProjection3new
FN:18,_RNvMNtNtCs44BQeM2UY80_12demonictutor14infrastructure10projectionNtB2_17GameLogProjection4logs
FN:25,_RNvMNtNtCs44BQeM2UY80_12demonictutor14infrastructure10projectionNtB2_17GameLogProjection6handle
FNDA:2,_RNCNvMNtNtCs44BQeM2UY80_12demonictutor14infrastructure10projectionNtB4_17GameLogProjection4logs0B8_
FNDA:0,_RNCNvMNtNtCsfSYmbtmwwOB_12demonictutor14infrastructure10projectionNtB4_17GameLogProjection4logs0B8_
FNDA:0,_RNvMNtNtCsfSYmbtmwwOB_12demonictutor14infrastructure10projectionNtB2_17GameLogProjection3new
FNDA:0,_RNvMNtNtCsfSYmbtmwwOB_12demonictutor14infrastructure10projectionNtB2_17GameLogProjection4logs
FNDA:0,_RNvMNtNtCsfSYmbtmwwOB_12demonictutor14infrastructure10projectionNtB2_17GameLogProjection6handle
FNDA:2,_RNvMNtNtCs44BQeM2UY80_12demonictutor14infrastructure10projectionNtB2_17GameLogProjection3new
FNDA:2,_RNvMNtNtCs44BQeM2UY80_12demonictutor14infrastructure10projectionNtB2_17GameLogProjection4logs
FNDA:7,_RNvMNtNtCs44BQeM2UY80_12demonictutor14infrastructure10projectionNtB2_17GameLogProjection6handle
FNF:4
FNH:4
DA:11,2
DA:12,2
DA:13,2
DA:14,2
DA:15,2
DA:18,2
DA:19,2
DA:20,2
DA:21,2
DA:22,2
DA:23,2
DA:25,7
DA:26,7
DA:27,2
DA:28,2
DA:31,2
DA:32,2
DA:33,2
DA:34,2
DA:37,1
DA:38,1
DA:41,1
DA:44,1
DA:45,1
DA:47,1
DA:48,1
DA:50,1
DA:51,1
DA:53,1
DA:54,1
DA:58,7
DA:59,7
DA:60,7
DA:61,7
BRF:0
BRH:0
LF:35
LH:35
end_of_record